Archive member included to satisfy reference by file (symbol)

/usr/bin/../lib/gcc/aarch64-elf/7.3.1/../../../../aarch64-elf/lib/libc.a(lib_a-atexit.o)
                              /usr/bin/../lib/gcc/aarch64-elf/7.3.1/../../../../aarch64-elf/lib/crt0.o (atexit)
/usr/bin/../lib/gcc/aarch64-elf/7.3.1/../../../../aarch64-elf/lib/libc.a(lib_a-exit.o)
                              /usr/bin/../lib/gcc/aarch64-elf/7.3.1/../../../../aarch64-elf/lib/crt0.o (exit)
/usr/bin/../lib/gcc/aarch64-elf/7.3.1/../../../../aarch64-elf/lib/libc.a(lib_a-fini.o)
                              /usr/bin/../lib/gcc/aarch64-elf/7.3.1/../../../../aarch64-elf/lib/crt0.o (__libc_fini_array)
/usr/bin/../lib/gcc/aarch64-elf/7.3.1/../../../../aarch64-elf/lib/libc.a(lib_a-impure.o)
                              /usr/bin/../lib/gcc/aarch64-elf/7.3.1/../../../../aarch64-elf/lib/libc.a(lib_a-exit.o) (_global_impure_ptr)
/usr/bin/../lib/gcc/aarch64-elf/7.3.1/../../../../aarch64-elf/lib/libc.a(lib_a-init.o)
                              /usr/bin/../lib/gcc/aarch64-elf/7.3.1/../../../../aarch64-elf/lib/crt0.o (__libc_init_array)
/usr/bin/../lib/gcc/aarch64-elf/7.3.1/../../../../aarch64-elf/lib/libc.a(lib_a-memset.o)
                              /usr/bin/../lib/gcc/aarch64-elf/7.3.1/../../../../aarch64-elf/lib/crt0.o (memset)
/usr/bin/../lib/gcc/aarch64-elf/7.3.1/../../../../aarch64-elf/lib/libc.a(lib_a-printf.o)
                              02_recursiveSum.o (printf)
/usr/bin/../lib/gcc/aarch64-elf/7.3.1/../../../../aarch64-elf/lib/libc.a(lib_a-puts.o)
                              02_recursiveSum.o (puts)
/usr/bin/../lib/gcc/aarch64-elf/7.3.1/../../../../aarch64-elf/lib/libc.a(lib_a-scanf.o)
                              02_recursiveSum.o (scanf)
/usr/bin/../lib/gcc/aarch64-elf/7.3.1/../../../../aarch64-elf/lib/libc.a(lib_a-strlen.o)
                              /usr/bin/../lib/gcc/aarch64-elf/7.3.1/../../../../aarch64-elf/lib/libc.a(lib_a-puts.o) (strlen)
/usr/bin/../lib/gcc/aarch64-elf/7.3.1/../../../../aarch64-elf/lib/libc.a(lib_a-syswrite.o)
                              /usr/bin/../lib/gcc/aarch64-elf/7.3.1/../../../../aarch64-elf/lib/cpu-init/rdimon-aem-el3.o (write)
/usr/bin/../lib/gcc/aarch64-elf/7.3.1/../../../../aarch64-elf/lib/libc.a(lib_a-vfprintf.o)
                              /usr/bin/../lib/gcc/aarch64-elf/7.3.1/../../../../aarch64-elf/lib/libc.a(lib_a-printf.o) (_vfprintf_r)
/usr/bin/../lib/gcc/aarch64-elf/7.3.1/../../../../aarch64-elf/lib/libc.a(lib_a-vfscanf.o)
                              /usr/bin/../lib/gcc/aarch64-elf/7.3.1/../../../../aarch64-elf/lib/libc.a(lib_a-scanf.o) (_vfscanf_r)
/usr/bin/../lib/gcc/aarch64-elf/7.3.1/../../../../aarch64-elf/lib/libc.a(lib_a-wcrtomb.o)
                              /usr/bin/../lib/gcc/aarch64-elf/7.3.1/../../../../aarch64-elf/lib/libc.a(lib_a-vfprintf.o) (_wcrtomb_r)
/usr/bin/../lib/gcc/aarch64-elf/7.3.1/../../../../aarch64-elf/lib/libc.a(lib_a-wcsrtombs.o)
                              /usr/bin/../lib/gcc/aarch64-elf/7.3.1/../../../../aarch64-elf/lib/libc.a(lib_a-vfprintf.o) (_wcsrtombs_r)
/usr/bin/../lib/gcc/aarch64-elf/7.3.1/../../../../aarch64-elf/lib/libc.a(lib_a-writer.o)
                              /usr/bin/../lib/gcc/aarch64-elf/7.3.1/../../../../aarch64-elf/lib/libc.a(lib_a-syswrite.o) (_write_r)
/usr/bin/../lib/gcc/aarch64-elf/7.3.1/../../../../aarch64-elf/lib/libc.a(lib_a-wsetup.o)
                              /usr/bin/../lib/gcc/aarch64-elf/7.3.1/../../../../aarch64-elf/lib/libc.a(lib_a-vfprintf.o) (__swsetup_r)
/usr/bin/../lib/gcc/aarch64-elf/7.3.1/../../../../aarch64-elf/lib/libc.a(lib_a-__atexit.o)
                              /usr/bin/../lib/gcc/aarch64-elf/7.3.1/../../../../aarch64-elf/lib/libc.a(lib_a-atexit.o) (__register_exitproc)
/usr/bin/../lib/gcc/aarch64-elf/7.3.1/../../../../aarch64-elf/lib/libc.a(lib_a-__call_atexit.o)
                              /usr/bin/../lib/gcc/aarch64-elf/7.3.1/../../../../aarch64-elf/lib/libc.a(lib_a-exit.o) (__call_exitprocs)
/usr/bin/../lib/gcc/aarch64-elf/7.3.1/../../../../aarch64-elf/lib/libc.a(lib_a-fflush.o)
                              /usr/bin/../lib/gcc/aarch64-elf/7.3.1/../../../../aarch64-elf/lib/libc.a(lib_a-vfprintf.o) (_fflush_r)
/usr/bin/../lib/gcc/aarch64-elf/7.3.1/../../../../aarch64-elf/lib/libc.a(lib_a-findfp.o)
                              /usr/bin/../lib/gcc/aarch64-elf/7.3.1/../../../../aarch64-elf/lib/libc.a(lib_a-puts.o) (__sinit)
/usr/bin/../lib/gcc/aarch64-elf/7.3.1/../../../../aarch64-elf/lib/libc.a(lib_a-fread.o)
                              /usr/bin/../lib/gcc/aarch64-elf/7.3.1/../../../../aarch64-elf/lib/libc.a(lib_a-vfscanf.o) (_fread_r)
/usr/bin/../lib/gcc/aarch64-elf/7.3.1/../../../../aarch64-elf/lib/libc.a(lib_a-freer.o)
                              /usr/bin/../lib/gcc/aarch64-elf/7.3.1/../../../../aarch64-elf/lib/libc.a(lib_a-vfprintf.o) (_free_r)
/usr/bin/../lib/gcc/aarch64-elf/7.3.1/../../../../aarch64-elf/lib/libc.a(lib_a-fvwrite.o)
                              /usr/bin/../lib/gcc/aarch64-elf/7.3.1/../../../../aarch64-elf/lib/libc.a(lib_a-puts.o) (__sfvwrite_r)
/usr/bin/../lib/gcc/aarch64-elf/7.3.1/../../../../aarch64-elf/lib/libc.a(lib_a-fwalk.o)
                              /usr/bin/../lib/gcc/aarch64-elf/7.3.1/../../../../aarch64-elf/lib/libc.a(lib_a-findfp.o) (_fwalk)
/usr/bin/../lib/gcc/aarch64-elf/7.3.1/../../../../aarch64-elf/lib/libc.a(lib_a-iswspace.o)
                              /usr/bin/../lib/gcc/aarch64-elf/7.3.1/../../../../aarch64-elf/lib/libc.a(lib_a-vfscanf.o) (iswspace)
/usr/bin/../lib/gcc/aarch64-elf/7.3.1/../../../../aarch64-elf/lib/libc.a(lib_a-jp2uc.o)
                              /usr/bin/../lib/gcc/aarch64-elf/7.3.1/../../../../aarch64-elf/lib/libc.a(lib_a-iswspace.o) (_jp2uc)
/usr/bin/../lib/gcc/aarch64-elf/7.3.1/../../../../aarch64-elf/lib/libc.a(lib_a-ldtoa.o)
                              /usr/bin/../lib/gcc/aarch64-elf/7.3.1/../../../../aarch64-elf/lib/libc.a(lib_a-vfprintf.o) (_ldtoa_r)
/usr/bin/../lib/gcc/aarch64-elf/7.3.1/../../../../aarch64-elf/lib/libc.a(lib_a-locale.o)
                              /usr/bin/../lib/gcc/aarch64-elf/7.3.1/../../../../aarch64-elf/lib/libc.a(lib_a-vfprintf.o) (__locale_mb_cur_max)
/usr/bin/../lib/gcc/aarch64-elf/7.3.1/../../../../aarch64-elf/lib/libc.a(lib_a-localeconv.o)
                              /usr/bin/../lib/gcc/aarch64-elf/7.3.1/../../../../aarch64-elf/lib/libc.a(lib_a-vfprintf.o) (_localeconv_r)
/usr/bin/../lib/gcc/aarch64-elf/7.3.1/../../../../aarch64-elf/lib/libc.a(lib_a-makebuf.o)
                              /usr/bin/../lib/gcc/aarch64-elf/7.3.1/../../../../aarch64-elf/lib/libc.a(lib_a-wsetup.o) (__smakebuf_r)
/usr/bin/../lib/gcc/aarch64-elf/7.3.1/../../../../aarch64-elf/lib/libc.a(lib_a-mallocr.o)
                              /usr/bin/../lib/gcc/aarch64-elf/7.3.1/../../../../aarch64-elf/lib/libc.a(lib_a-vfprintf.o) (_malloc_r)
/usr/bin/../lib/gcc/aarch64-elf/7.3.1/../../../../aarch64-elf/lib/libc.a(lib_a-mbrtowc.o)
                              /usr/bin/../lib/gcc/aarch64-elf/7.3.1/../../../../aarch64-elf/lib/libc.a(lib_a-vfscanf.o) (_mbrtowc_r)
/usr/bin/../lib/gcc/aarch64-elf/7.3.1/../../../../aarch64-elf/lib/libc.a(lib_a-mbtowc_r.o)
                              /usr/bin/../lib/gcc/aarch64-elf/7.3.1/../../../../aarch64-elf/lib/libc.a(lib_a-locale.o) (__ascii_mbtowc)
/usr/bin/../lib/gcc/aarch64-elf/7.3.1/../../../../aarch64-elf/lib/libc.a(lib_a-memchr.o)
                              /usr/bin/../lib/gcc/aarch64-elf/7.3.1/../../../../aarch64-elf/lib/libc.a(lib_a-vfprintf.o) (memchr)
/usr/bin/../lib/gcc/aarch64-elf/7.3.1/../../../../aarch64-elf/lib/libc.a(lib_a-memcpy.o)
                              /usr/bin/../lib/gcc/aarch64-elf/7.3.1/../../../../aarch64-elf/lib/libc.a(lib_a-fread.o) (memcpy)
/usr/bin/../lib/gcc/aarch64-elf/7.3.1/../../../../aarch64-elf/lib/libc.a(lib_a-memmove.o)
                              /usr/bin/../lib/gcc/aarch64-elf/7.3.1/../../../../aarch64-elf/lib/libc.a(lib_a-fvwrite.o) (memmove)
/usr/bin/../lib/gcc/aarch64-elf/7.3.1/../../../../aarch64-elf/lib/libc.a(lib_a-mlock.o)
                              /usr/bin/../lib/gcc/aarch64-elf/7.3.1/../../../../aarch64-elf/lib/libc.a(lib_a-freer.o) (__malloc_lock)
/usr/bin/../lib/gcc/aarch64-elf/7.3.1/../../../../aarch64-elf/lib/libc.a(lib_a-mprec.o)
                              /usr/bin/../lib/gcc/aarch64-elf/7.3.1/../../../../aarch64-elf/lib/libc.a(lib_a-ldtoa.o) (_Balloc)
/usr/bin/../lib/gcc/aarch64-elf/7.3.1/../../../../aarch64-elf/lib/libc.a(lib_a-reallocr.o)
                              /usr/bin/../lib/gcc/aarch64-elf/7.3.1/../../../../aarch64-elf/lib/libc.a(lib_a-fvwrite.o) (_realloc_r)
/usr/bin/../lib/gcc/aarch64-elf/7.3.1/../../../../aarch64-elf/lib/libc.a(lib_a-reent.o)
                              /usr/bin/../lib/gcc/aarch64-elf/7.3.1/../../../../aarch64-elf/lib/libc.a(lib_a-writer.o) (errno)
/usr/bin/../lib/gcc/aarch64-elf/7.3.1/../../../../aarch64-elf/lib/libc.a(lib_a-refill.o)
                              /usr/bin/../lib/gcc/aarch64-elf/7.3.1/../../../../aarch64-elf/lib/libc.a(lib_a-vfscanf.o) (__srefill_r)
/usr/bin/../lib/gcc/aarch64-elf/7.3.1/../../../../aarch64-elf/lib/libc.a(lib_a-s_frexp.o)
                              /usr/bin/../lib/gcc/aarch64-elf/7.3.1/../../../../aarch64-elf/lib/libc.a(lib_a-vfprintf.o) (frexp)
/usr/bin/../lib/gcc/aarch64-elf/7.3.1/../../../../aarch64-elf/lib/libc.a(lib_a-sbrkr.o)
                              /usr/bin/../lib/gcc/aarch64-elf/7.3.1/../../../../aarch64-elf/lib/libc.a(lib_a-freer.o) (_sbrk_r)
/usr/bin/../lib/gcc/aarch64-elf/7.3.1/../../../../aarch64-elf/lib/libc.a(lib_a-sccl.o)
                              /usr/bin/../lib/gcc/aarch64-elf/7.3.1/../../../../aarch64-elf/lib/libc.a(lib_a-vfscanf.o) (__sccl)
/usr/bin/../lib/gcc/aarch64-elf/7.3.1/../../../../aarch64-elf/lib/libc.a(lib_a-sf_nan.o)
                              /usr/bin/../lib/gcc/aarch64-elf/7.3.1/../../../../aarch64-elf/lib/libc.a(lib_a-vfscanf.o) (nanf)
/usr/bin/../lib/gcc/aarch64-elf/7.3.1/../../../../aarch64-elf/lib/libc.a(lib_a-sprintf.o)
                              /usr/bin/../lib/gcc/aarch64-elf/7.3.1/../../../../aarch64-elf/lib/libc.a(lib_a-vfscanf.o) (sprintf)
/usr/bin/../lib/gcc/aarch64-elf/7.3.1/../../../../aarch64-elf/lib/libc.a(lib_a-stdio.o)
                              /usr/bin/../lib/gcc/aarch64-elf/7.3.1/../../../../aarch64-elf/lib/libc.a(lib_a-findfp.o) (__sread)
/usr/bin/../lib/gcc/aarch64-elf/7.3.1/../../../../aarch64-elf/lib/libc.a(lib_a-stpncpy.o)
                              /usr/bin/../lib/gcc/aarch64-elf/7.3.1/../../../../aarch64-elf/lib/libc.a(lib_a-vfscanf.o) (stpncpy)
/usr/bin/../lib/gcc/aarch64-elf/7.3.1/../../../../aarch64-elf/lib/libc.a(lib_a-strcasecmp.o)
                              /usr/bin/../lib/gcc/aarch64-elf/7.3.1/../../../../aarch64-elf/lib/libc.a(lib_a-locale.o) (strcasecmp)
/usr/bin/../lib/gcc/aarch64-elf/7.3.1/../../../../aarch64-elf/lib/libc.a(lib_a-strcat.o)
                              /usr/bin/../lib/gcc/aarch64-elf/7.3.1/../../../../aarch64-elf/lib/libc.a(lib_a-locale.o) (strcat)
/usr/bin/../lib/gcc/aarch64-elf/7.3.1/../../../../aarch64-elf/lib/libc.a(lib_a-strchr.o)
                              /usr/bin/../lib/gcc/aarch64-elf/7.3.1/../../../../aarch64-elf/lib/libc.a(lib_a-locale.o) (strchr)
/usr/bin/../lib/gcc/aarch64-elf/7.3.1/../../../../aarch64-elf/lib/libc.a(lib_a-strcmp.o)
                              /usr/bin/../lib/gcc/aarch64-elf/7.3.1/../../../../aarch64-elf/lib/libc.a(lib_a-jp2uc.o) (strcmp)
/usr/bin/../lib/gcc/aarch64-elf/7.3.1/../../../../aarch64-elf/lib/libc.a(lib_a-strcpy.o)
                              /usr/bin/../lib/gcc/aarch64-elf/7.3.1/../../../../aarch64-elf/lib/libc.a(lib_a-ldtoa.o) (strcpy)
/usr/bin/../lib/gcc/aarch64-elf/7.3.1/../../../../aarch64-elf/lib/libc.a(lib_a-strlcpy.o)
                              /usr/bin/../lib/gcc/aarch64-elf/7.3.1/../../../../aarch64-elf/lib/libc.a(lib_a-locale.o) (strlcpy)
/usr/bin/../lib/gcc/aarch64-elf/7.3.1/../../../../aarch64-elf/lib/libc.a(lib_a-strncasecmp.o)
                              /usr/bin/../lib/gcc/aarch64-elf/7.3.1/../../../../aarch64-elf/lib/libc.a(lib_a-locale.o) (strncasecmp)
/usr/bin/../lib/gcc/aarch64-elf/7.3.1/../../../../aarch64-elf/lib/libc.a(lib_a-strncmp.o)
                              /usr/bin/../lib/gcc/aarch64-elf/7.3.1/../../../../aarch64-elf/lib/libc.a(lib_a-locale.o) (strncmp)
/usr/bin/../lib/gcc/aarch64-elf/7.3.1/../../../../aarch64-elf/lib/libc.a(lib_a-strncpy.o)
                              /usr/bin/../lib/gcc/aarch64-elf/7.3.1/../../../../aarch64-elf/lib/libc.a(lib_a-vfprintf.o) (strncpy)
/usr/bin/../lib/gcc/aarch64-elf/7.3.1/../../../../aarch64-elf/lib/libc.a(lib_a-strtod.o)
                              /usr/bin/../lib/gcc/aarch64-elf/7.3.1/../../../../aarch64-elf/lib/libc.a(lib_a-vfscanf.o) (_strtod_r)
/usr/bin/../lib/gcc/aarch64-elf/7.3.1/../../../../aarch64-elf/lib/libc.a(lib_a-strtol.o)
                              /usr/bin/../lib/gcc/aarch64-elf/7.3.1/../../../../aarch64-elf/lib/libc.a(lib_a-vfscanf.o) (_strtol_r)
/usr/bin/../lib/gcc/aarch64-elf/7.3.1/../../../../aarch64-elf/lib/libc.a(lib_a-strtold.o)
                              /usr/bin/../lib/gcc/aarch64-elf/7.3.1/../../../../aarch64-elf/lib/libc.a(lib_a-vfscanf.o) (_strtold_r)
/usr/bin/../lib/gcc/aarch64-elf/7.3.1/../../../../aarch64-elf/lib/libc.a(lib_a-strtoll.o)
                              /usr/bin/../lib/gcc/aarch64-elf/7.3.1/../../../../aarch64-elf/lib/libc.a(lib_a-vfscanf.o) (_strtoll_r)
/usr/bin/../lib/gcc/aarch64-elf/7.3.1/../../../../aarch64-elf/lib/libc.a(lib_a-strtorx.o)
                              /usr/bin/../lib/gcc/aarch64-elf/7.3.1/../../../../aarch64-elf/lib/libc.a(lib_a-strtold.o) (_strtorx_l)
/usr/bin/../lib/gcc/aarch64-elf/7.3.1/../../../../aarch64-elf/lib/libc.a(lib_a-strtoul.o)
                              /usr/bin/../lib/gcc/aarch64-elf/7.3.1/../../../../aarch64-elf/lib/libc.a(lib_a-vfscanf.o) (_strtoul_r)
/usr/bin/../lib/gcc/aarch64-elf/7.3.1/../../../../aarch64-elf/lib/libc.a(lib_a-strtoull.o)
                              /usr/bin/../lib/gcc/aarch64-elf/7.3.1/../../../../aarch64-elf/lib/libc.a(lib_a-vfscanf.o) (_strtoull_r)
/usr/bin/../lib/gcc/aarch64-elf/7.3.1/../../../../aarch64-elf/lib/libc.a(lib_a-svfiprintf.o)
                              /usr/bin/../lib/gcc/aarch64-elf/7.3.1/../../../../aarch64-elf/lib/libc.a(lib_a-vfprintf.o) (__action_table)
/usr/bin/../lib/gcc/aarch64-elf/7.3.1/../../../../aarch64-elf/lib/libc.a(lib_a-svfprintf.o)
                              /usr/bin/../lib/gcc/aarch64-elf/7.3.1/../../../../aarch64-elf/lib/libc.a(lib_a-sprintf.o) (_svfprintf_r)
/usr/bin/../lib/gcc/aarch64-elf/7.3.1/../../../../aarch64-elf/lib/libc.a(lib_a-ungetc.o)
                              /usr/bin/../lib/gcc/aarch64-elf/7.3.1/../../../../aarch64-elf/lib/libc.a(lib_a-vfscanf.o) (_ungetc_r)
/usr/bin/../lib/gcc/aarch64-elf/7.3.1/../../../../aarch64-elf/lib/libc.a(lib_a-vfiprintf.o)
                              /usr/bin/../lib/gcc/aarch64-elf/7.3.1/../../../../aarch64-elf/lib/libc.a(lib_a-vfprintf.o) (__sprint_r)
/usr/bin/../lib/gcc/aarch64-elf/7.3.1/../../../../aarch64-elf/lib/libc.a(lib_a-wcsnrtombs.o)
                              /usr/bin/../lib/gcc/aarch64-elf/7.3.1/../../../../aarch64-elf/lib/libc.a(lib_a-wcsrtombs.o) (_wcsnrtombs_r)
/usr/bin/../lib/gcc/aarch64-elf/7.3.1/../../../../aarch64-elf/lib/libc.a(lib_a-wctomb_r.o)
                              /usr/bin/../lib/gcc/aarch64-elf/7.3.1/../../../../aarch64-elf/lib/libc.a(lib_a-locale.o) (__ascii_wctomb)
/usr/bin/../lib/gcc/aarch64-elf/7.3.1/../../../../aarch64-elf/lib/libc.a(lib_a-callocr.o)
                              /usr/bin/../lib/gcc/aarch64-elf/7.3.1/../../../../aarch64-elf/lib/libc.a(lib_a-mprec.o) (_calloc_r)
/usr/bin/../lib/gcc/aarch64-elf/7.3.1/../../../../aarch64-elf/lib/libc.a(lib_a-closer.o)
                              /usr/bin/../lib/gcc/aarch64-elf/7.3.1/../../../../aarch64-elf/lib/libc.a(lib_a-stdio.o) (_close_r)
/usr/bin/../lib/gcc/aarch64-elf/7.3.1/../../../../aarch64-elf/lib/libc.a(lib_a-ctype_.o)
                              /usr/bin/../lib/gcc/aarch64-elf/7.3.1/../../../../aarch64-elf/lib/libc.a(lib_a-locale.o) (__set_ctype)
/usr/bin/../lib/gcc/aarch64-elf/7.3.1/../../../../aarch64-elf/lib/libc.a(lib_a-fclose.o)
                              /usr/bin/../lib/gcc/aarch64-elf/7.3.1/../../../../aarch64-elf/lib/libc.a(lib_a-findfp.o) (_fclose_r)
/usr/bin/../lib/gcc/aarch64-elf/7.3.1/../../../../aarch64-elf/lib/libc.a(lib_a-fputwc.o)
                              /usr/bin/../lib/gcc/aarch64-elf/7.3.1/../../../../aarch64-elf/lib/libc.a(lib_a-vfiprintf.o) (_fputwc_r)
/usr/bin/../lib/gcc/aarch64-elf/7.3.1/../../../../aarch64-elf/lib/libc.a(lib_a-fstatr.o)
                              /usr/bin/../lib/gcc/aarch64-elf/7.3.1/../../../../aarch64-elf/lib/libc.a(lib_a-makebuf.o) (_fstat_r)
/usr/bin/../lib/gcc/aarch64-elf/7.3.1/../../../../aarch64-elf/lib/libc.a(lib_a-gdtoa-gethex.o)
                              /usr/bin/../lib/gcc/aarch64-elf/7.3.1/../../../../aarch64-elf/lib/libc.a(lib_a-strtod.o) (__gethex)
/usr/bin/../lib/gcc/aarch64-elf/7.3.1/../../../../aarch64-elf/lib/libc.a(lib_a-gdtoa-hexnan.o)
                              /usr/bin/../lib/gcc/aarch64-elf/7.3.1/../../../../aarch64-elf/lib/libc.a(lib_a-strtod.o) (__match)
/usr/bin/../lib/gcc/aarch64-elf/7.3.1/../../../../aarch64-elf/lib/libc.a(lib_a-getenv_r.o)
                              /usr/bin/../lib/gcc/aarch64-elf/7.3.1/../../../../aarch64-elf/lib/libc.a(lib_a-locale.o) (_getenv_r)
/usr/bin/../lib/gcc/aarch64-elf/7.3.1/../../../../aarch64-elf/lib/libc.a(lib_a-isattyr.o)
                              /usr/bin/../lib/gcc/aarch64-elf/7.3.1/../../../../aarch64-elf/lib/libc.a(lib_a-makebuf.o) (_isatty_r)
/usr/bin/../lib/gcc/aarch64-elf/7.3.1/../../../../aarch64-elf/lib/libc.a(lib_a-lseekr.o)
                              /usr/bin/../lib/gcc/aarch64-elf/7.3.1/../../../../aarch64-elf/lib/libc.a(lib_a-stdio.o) (_lseek_r)
/usr/bin/../lib/gcc/aarch64-elf/7.3.1/../../../../aarch64-elf/lib/libc.a(lib_a-readr.o)
                              /usr/bin/../lib/gcc/aarch64-elf/7.3.1/../../../../aarch64-elf/lib/libc.a(lib_a-stdio.o) (_read_r)
/usr/bin/../lib/gcc/aarch64-elf/7.3.1/../../../../aarch64-elf/lib/libc.a(lib_a-strtodg.o)
                              /usr/bin/../lib/gcc/aarch64-elf/7.3.1/../../../../aarch64-elf/lib/libc.a(lib_a-strtorx.o) (_strtodg_l)
/usr/bin/../lib/gcc/aarch64-elf/7.3.1/../../../../aarch64-elf/lib/libc.a(lib_a-wbuf.o)
                              /usr/bin/../lib/gcc/aarch64-elf/7.3.1/../../../../aarch64-elf/lib/libc.a(lib_a-fputwc.o) (__swbuf_r)
/usr/bin/../lib/gcc/aarch64-elf/7.3.1/../../../../aarch64-elf/lib/libc.a(lib_a-environ.o)
                              /usr/bin/../lib/gcc/aarch64-elf/7.3.1/../../../../aarch64-elf/lib/libc.a(lib_a-getenv_r.o) (environ)
/usr/bin/../lib/gcc/aarch64-elf/7.3.1/../../../../aarch64-elf/lib/libc.a(lib_a-envlock.o)
                              /usr/bin/../lib/gcc/aarch64-elf/7.3.1/../../../../aarch64-elf/lib/libc.a(lib_a-getenv_r.o) (__env_lock)
/usr/bin/../lib/gcc/aarch64-elf/7.3.1/../../../../aarch64-elf/lib/libc.a(lib_a-errno.o)
                              /usr/bin/../lib/gcc/aarch64-elf/7.3.1/../../../../aarch64-elf/lib/libc.a(lib_a-strtodg.o) (__errno)
/usr/bin/../lib/gcc/aarch64-elf/7.3.1/../../../../aarch64-elf/lib/librdimon.a(rdimon-syscalls.o)
                              /usr/bin/../lib/gcc/aarch64-elf/7.3.1/../../../../aarch64-elf/lib/libc.a(lib_a-readr.o) (_read)
/usr/bin/../lib/gcc/aarch64-elf/7.3.1/../../../../aarch64-elf/lib/librdimon.a(rdimon-_exit.o)
                              /usr/bin/../lib/gcc/aarch64-elf/7.3.1/../../../../aarch64-elf/lib/libc.a(lib_a-exit.o) (_exit)
/usr/bin/../lib/gcc/aarch64-elf/7.3.1/libgcc.a(eqtf2.o)
                              /usr/bin/../lib/gcc/aarch64-elf/7.3.1/../../../../aarch64-elf/lib/libc.a(lib_a-vfprintf.o) (__eqtf2)
/usr/bin/../lib/gcc/aarch64-elf/7.3.1/libgcc.a(getf2.o)
                              /usr/bin/../lib/gcc/aarch64-elf/7.3.1/../../../../aarch64-elf/lib/libc.a(lib_a-vfprintf.o) (__gttf2)
/usr/bin/../lib/gcc/aarch64-elf/7.3.1/libgcc.a(letf2.o)
                              /usr/bin/../lib/gcc/aarch64-elf/7.3.1/../../../../aarch64-elf/lib/libc.a(lib_a-vfprintf.o) (__lttf2)
/usr/bin/../lib/gcc/aarch64-elf/7.3.1/libgcc.a(multf3.o)
                              /usr/bin/../lib/gcc/aarch64-elf/7.3.1/../../../../aarch64-elf/lib/libc.a(lib_a-vfprintf.o) (__multf3)
/usr/bin/../lib/gcc/aarch64-elf/7.3.1/libgcc.a(subtf3.o)
                              /usr/bin/../lib/gcc/aarch64-elf/7.3.1/../../../../aarch64-elf/lib/libc.a(lib_a-vfprintf.o) (__subtf3)
/usr/bin/../lib/gcc/aarch64-elf/7.3.1/libgcc.a(fixtfsi.o)
                              /usr/bin/../lib/gcc/aarch64-elf/7.3.1/../../../../aarch64-elf/lib/libc.a(lib_a-vfprintf.o) (__fixtfsi)
/usr/bin/../lib/gcc/aarch64-elf/7.3.1/libgcc.a(floatsitf.o)
                              /usr/bin/../lib/gcc/aarch64-elf/7.3.1/../../../../aarch64-elf/lib/libc.a(lib_a-vfprintf.o) (__floatsitf)
/usr/bin/../lib/gcc/aarch64-elf/7.3.1/libgcc.a(extenddftf2.o)
                              /usr/bin/../lib/gcc/aarch64-elf/7.3.1/../../../../aarch64-elf/lib/libc.a(lib_a-vfprintf.o) (__extenddftf2)
/usr/bin/../lib/gcc/aarch64-elf/7.3.1/libgcc.a(trunctfdf2.o)
                              /usr/bin/../lib/gcc/aarch64-elf/7.3.1/../../../../aarch64-elf/lib/libc.a(lib_a-vfprintf.o) (__trunctfdf2)
/usr/bin/../lib/gcc/aarch64-elf/7.3.1/libgcc.a(sfp-exceptions.o)
                              /usr/bin/../lib/gcc/aarch64-elf/7.3.1/libgcc.a(eqtf2.o) (__sfp_handle_exceptions)

Allocating common symbols
Common symbol       size              file

errno               0x4               /usr/bin/../lib/gcc/aarch64-elf/7.3.1/../../../../aarch64-elf/lib/libc.a(lib_a-reent.o)

Memory Configuration

Name             Origin             Length             Attributes
*default*        0x0000000000000000 0xffffffffffffffff

Linker script and memory map

Address of section .text-segment set to 0x80000000
LOAD /usr/bin/../lib/gcc/aarch64-elf/7.3.1/crti.o
LOAD /usr/bin/../lib/gcc/aarch64-elf/7.3.1/crtbegin.o
LOAD /usr/bin/../lib/gcc/aarch64-elf/7.3.1/../../../../aarch64-elf/lib/crt0.o
LOAD 02_recursiveSum.o
LOAD mysum.o
LOAD /usr/bin/../lib/gcc/aarch64-elf/7.3.1/libgcc.a
LOAD /usr/bin/../lib/gcc/aarch64-elf/7.3.1/../../../../aarch64-elf/lib/cpu-init/rdimon-aem-el3.o
START GROUP
LOAD /usr/bin/../lib/gcc/aarch64-elf/7.3.1/../../../../aarch64-elf/lib/libc.a
LOAD /usr/bin/../lib/gcc/aarch64-elf/7.3.1/../../../../aarch64-elf/lib/librdimon.a
END GROUP
LOAD /usr/bin/../lib/gcc/aarch64-elf/7.3.1/libgcc.a
LOAD /usr/bin/../lib/gcc/aarch64-elf/7.3.1/crtend.o
LOAD /usr/bin/../lib/gcc/aarch64-elf/7.3.1/crtn.o
                [!provide]                        PROVIDE (__executable_start, SEGMENT_START ("text-segment", 0x400000))
                0x0000000080000000                . = SEGMENT_START ("text-segment", 0x400000)

.interp
 *(.interp)

.note.gnu.build-id
 *(.note.gnu.build-id)

.hash
 *(.hash)

.gnu.hash
 *(.gnu.hash)

.dynsym
 *(.dynsym)

.dynstr
 *(.dynstr)

.gnu.version
 *(.gnu.version)

.gnu.version_d
 *(.gnu.version_d)

.gnu.version_r
 *(.gnu.version_r)

.rela.dyn
 *(.rela.init)
 *(.rela.text .rela.text.* .rela.gnu.linkonce.t.*)
 *(.rela.fini)
 *(.rela.rodata .rela.rodata.* .rela.gnu.linkonce.r.*)
 *(.rela.data .rela.data.* .rela.gnu.linkonce.d.*)
 *(.rela.tdata .rela.tdata.* .rela.gnu.linkonce.td.*)
 *(.rela.tbss .rela.tbss.* .rela.gnu.linkonce.tb.*)
 *(.rela.ctors)
 *(.rela.dtors)
 *(.rela.got)
 *(.rela.bss .rela.bss.* .rela.gnu.linkonce.b.*)
 *(.rela.ifunc)

.rela.plt       0x0000000080000000        0x0
 *(.rela.plt)
                [!provide]                        PROVIDE (__rela_iplt_start, .)
 *(.rela.iplt)
 .rela.iplt     0x0000000080000000        0x0 /usr/bin/../lib/gcc/aarch64-elf/7.3.1/crtbegin.o
                [!provide]                        PROVIDE (__rela_iplt_end, .)

.init           0x0000000080000000       0x34
 *(SORT(.init))
 .init          0x0000000080000000       0x18 /usr/bin/../lib/gcc/aarch64-elf/7.3.1/crti.o
                0x0000000080000000                _init
 .init          0x0000000080000018       0x1c /usr/bin/../lib/gcc/aarch64-elf/7.3.1/crtn.o

.plt            0x0000000080000034        0x0
 *(.plt)
 *(.iplt)
 .iplt          0x0000000080000034        0x0 /usr/bin/../lib/gcc/aarch64-elf/7.3.1/crtbegin.o

.text           0x0000000080001000    0x356c8
 *(.text.unlikely .text.*_unlikely .text.unlikely.*)
 .text.unlikely
                0x0000000080001000       0x54 /usr/bin/../lib/gcc/aarch64-elf/7.3.1/../../../../aarch64-elf/lib/libc.a(lib_a-strtod.o)
 *(.text.exit .text.exit.*)
 *(.text.startup .text.startup.*)
 *(.text.hot .text.hot.*)
 *(.text .stub .text.* .gnu.linkonce.t.*)
 .text          0x0000000080001054        0x0 /usr/bin/../lib/gcc/aarch64-elf/7.3.1/crti.o
 *fill*         0x0000000080001054        0x4 00000000
 .text          0x0000000080001058       0xe4 /usr/bin/../lib/gcc/aarch64-elf/7.3.1/crtbegin.o
 *fill*         0x000000008000113c        0x4 00000000
 .text          0x0000000080001140      0x130 /usr/bin/../lib/gcc/aarch64-elf/7.3.1/../../../../aarch64-elf/lib/crt0.o
                0x0000000080001140                _mainCRTStartup
                0x0000000080001140                _start
 .text          0x0000000080001270       0x90 02_recursiveSum.o
                0x0000000080001270                main
 .text          0x0000000080001300       0x3c mysum.o
                0x0000000080001300                mysum
 *fill*         0x000000008000133c      0xcc4 00000000
 .text          0x0000000080002000     0x1818 /usr/bin/../lib/gcc/aarch64-elf/7.3.1/../../../../aarch64-elf/lib/cpu-init/rdimon-aem-el3.o
                0x00000000800037ec                _cpu_init_hook
 .text          0x0000000080003818       0x14 /usr/bin/../lib/gcc/aarch64-elf/7.3.1/../../../../aarch64-elf/lib/libc.a(lib_a-atexit.o)
                0x0000000080003818                atexit
 *fill*         0x000000008000382c        0x4 00000000
 .text          0x0000000080003830       0x34 /usr/bin/../lib/gcc/aarch64-elf/7.3.1/../../../../aarch64-elf/lib/libc.a(lib_a-exit.o)
                0x0000000080003830                exit
 *fill*         0x0000000080003864        0x4 00000000
 .text          0x0000000080003868       0x44 /usr/bin/../lib/gcc/aarch64-elf/7.3.1/../../../../aarch64-elf/lib/libc.a(lib_a-fini.o)
                0x0000000080003868                __libc_fini_array
 .text          0x00000000800038ac        0x0 /usr/bin/../lib/gcc/aarch64-elf/7.3.1/../../../../aarch64-elf/lib/libc.a(lib_a-impure.o)
 *fill*         0x00000000800038ac        0x4 00000000
 .text          0x00000000800038b0       0x8c /usr/bin/../lib/gcc/aarch64-elf/7.3.1/../../../../aarch64-elf/lib/libc.a(lib_a-init.o)
                0x00000000800038b0                __libc_init_array
 *fill*         0x000000008000393c        0x4 00000000
 .text          0x0000000080003940      0x1d8 /usr/bin/../lib/gcc/aarch64-elf/7.3.1/../../../../aarch64-elf/lib/libc.a(lib_a-memset.o)
                0x0000000080003940                memset
 .text          0x0000000080003b18      0x10c /usr/bin/../lib/gcc/aarch64-elf/7.3.1/../../../../aarch64-elf/lib/libc.a(lib_a-printf.o)
                0x0000000080003b18                _printf_r
                0x0000000080003b98                printf
 *fill*         0x0000000080003c24        0x4 00000000
 .text          0x0000000080003c28       0xb8 /usr/bin/../lib/gcc/aarch64-elf/7.3.1/../../../../aarch64-elf/lib/libc.a(lib_a-puts.o)
                0x0000000080003c28                _puts_r
                0x0000000080003cd0                puts
 .text          0x0000000080003ce0      0x10c /usr/bin/../lib/gcc/aarch64-elf/7.3.1/../../../../aarch64-elf/lib/libc.a(lib_a-scanf.o)
                0x0000000080003ce0                scanf
                0x0000000080003d70                _scanf_r
 *fill*         0x0000000080003dec       0x14 00000000
 .text          0x0000000080003e00      0x140 /usr/bin/../lib/gcc/aarch64-elf/7.3.1/../../../../aarch64-elf/lib/libc.a(lib_a-strlen.o)
                0x0000000080003e00                strlen
 .text          0x0000000080003f40       0x28 /usr/bin/../lib/gcc/aarch64-elf/7.3.1/../../../../aarch64-elf/lib/libc.a(lib_a-syswrite.o)
                0x0000000080003f40                write
 .text          0x0000000080003f68     0x85a8 /usr/bin/../lib/gcc/aarch64-elf/7.3.1/../../../../aarch64-elf/lib/libc.a(lib_a-vfprintf.o)
                0x0000000080007918                _vfprintf_r
                0x000000008000c408                vfprintf
 .text          0x000000008000c510     0x2e40 /usr/bin/../lib/gcc/aarch64-elf/7.3.1/../../../../aarch64-elf/lib/libc.a(lib_a-vfscanf.o)
                0x000000008000c510                __svfscanf_r
                0x000000008000f248                vfscanf
                0x000000008000f2b8                __svfscanf
                0x000000008000f2f8                _vfscanf_r
 .text          0x000000008000f350      0x174 /usr/bin/../lib/gcc/aarch64-elf/7.3.1/../../../../aarch64-elf/lib/libc.a(lib_a-wcrtomb.o)
                0x000000008000f350                _wcrtomb_r
                0x000000008000f408                wcrtomb
 *fill*         0x000000008000f4c4        0x4 00000000
 .text          0x000000008000f4c8       0x30 /usr/bin/../lib/gcc/aarch64-elf/7.3.1/../../../../aarch64-elf/lib/libc.a(lib_a-wcsrtombs.o)
                0x000000008000f4c8                _wcsrtombs_r
                0x000000008000f4d8                wcsrtombs
 .text          0x000000008000f4f8       0x5c /usr/bin/../lib/gcc/aarch64-elf/7.3.1/../../../../aarch64-elf/lib/libc.a(lib_a-writer.o)
                0x000000008000f4f8                _write_r
 *fill*         0x000000008000f554        0x4 00000000
 .text          0x000000008000f558      0x13c /usr/bin/../lib/gcc/aarch64-elf/7.3.1/../../../../aarch64-elf/lib/libc.a(lib_a-wsetup.o)
                0x000000008000f558                __swsetup_r
 *fill*         0x000000008000f694        0x4 00000000
 .text          0x000000008000f698       0xf4 /usr/bin/../lib/gcc/aarch64-elf/7.3.1/../../../../aarch64-elf/lib/libc.a(lib_a-__atexit.o)
                0x000000008000f698                __register_exitproc
 *fill*         0x000000008000f78c        0x4 00000000
 .text          0x000000008000f790      0x154 /usr/bin/../lib/gcc/aarch64-elf/7.3.1/../../../../aarch64-elf/lib/libc.a(lib_a-__call_atexit.o)
                0x000000008000f790                __call_exitprocs
 *fill*         0x000000008000f8e4        0x4 00000000
 .text          0x000000008000f8e8      0x2e8 /usr/bin/../lib/gcc/aarch64-elf/7.3.1/../../../../aarch64-elf/lib/libc.a(lib_a-fflush.o)
                0x000000008000f8e8                __sflush_r
                0x000000008000fb50                _fflush_r
                0x000000008000fba8                fflush
 .text          0x000000008000fbd0      0x32c /usr/bin/../lib/gcc/aarch64-elf/7.3.1/../../../../aarch64-elf/lib/libc.a(lib_a-findfp.o)
                0x000000008000fbd8                _cleanup_r
                0x000000008000fd28                __sfmoreglue
                0x000000008000fd88                __sfp
                0x000000008000fe88                _cleanup
                0x000000008000fea0                __sinit
                0x000000008000feb0                __sfp_lock_acquire
                0x000000008000feb8                __sfp_lock_release
                0x000000008000fec0                __sinit_lock_acquire
                0x000000008000fec8                __sinit_lock_release
                0x000000008000fed0                __fp_lock_all
                0x000000008000fee8                __fp_unlock_all
 *fill*         0x000000008000fefc        0x4 00000000
 .text          0x000000008000ff00      0x26c /usr/bin/../lib/gcc/aarch64-elf/7.3.1/../../../../aarch64-elf/lib/libc.a(lib_a-fread.o)
                0x000000008000ff00                _fread_r
                0x0000000080010150                fread
 *fill*         0x000000008001016c        0x4 00000000
 .text          0x0000000080010170      0x410 /usr/bin/../lib/gcc/aarch64-elf/7.3.1/../../../../aarch64-elf/lib/libc.a(lib_a-freer.o)
                0x0000000080010170                _malloc_trim_r
                0x0000000080010280                _free_r
 .text          0x0000000080010580      0x4f8 /usr/bin/../lib/gcc/aarch64-elf/7.3.1/../../../../aarch64-elf/lib/libc.a(lib_a-fvwrite.o)
                0x0000000080010580                __sfvwrite_r
 .text          0x0000000080010a78      0x18c /usr/bin/../lib/gcc/aarch64-elf/7.3.1/../../../../aarch64-elf/lib/libc.a(lib_a-fwalk.o)
                0x0000000080010a78                _fwalk
                0x0000000080010b38                _fwalk_reent
 *fill*         0x0000000080010c04        0x4 00000000
 .text          0x0000000080010c08       0x80 /usr/bin/../lib/gcc/aarch64-elf/7.3.1/../../../../aarch64-elf/lib/libc.a(lib_a-iswspace.o)
                0x0000000080010c08                iswspace
 .text          0x0000000080010c88      0x320 /usr/bin/../lib/gcc/aarch64-elf/7.3.1/../../../../aarch64-elf/lib/libc.a(lib_a-jp2uc.o)
                0x0000000080010ee8                _jp2uc
 .text          0x0000000080010fa8     0x285c /usr/bin/../lib/gcc/aarch64-elf/7.3.1/../../../../aarch64-elf/lib/libc.a(lib_a-ldtoa.o)
                0x0000000080012560                _ldtoa_r
                0x00000000800137b0                _ldcheck
 *fill*         0x0000000080013804        0x4 00000000
 .text          0x0000000080013808      0xd0c /usr/bin/../lib/gcc/aarch64-elf/7.3.1/../../../../aarch64-elf/lib/libc.a(lib_a-locale.o)
                0x00000000800138c0                __loadlocale
                0x0000000080014058                __get_locale_env
                0x00000000800140e8                _setlocale_r
                0x00000000800144a8                __locale_mb_cur_max
                0x00000000800144d0                __locale_ctype_ptr_l
                0x00000000800144d8                __locale_ctype_ptr
                0x0000000080014500                setlocale
 *fill*         0x0000000080014514        0x4 00000000
 .text          0x0000000080014518       0x54 /usr/bin/../lib/gcc/aarch64-elf/7.3.1/../../../../aarch64-elf/lib/libc.a(lib_a-localeconv.o)
                0x0000000080014518                __localeconv_l
                0x0000000080014520                _localeconv_r
                0x0000000080014548                localeconv
 *fill*         0x000000008001456c        0x4 00000000
 .text          0x0000000080014570      0x1b4 /usr/bin/../lib/gcc/aarch64-elf/7.3.1/../../../../aarch64-elf/lib/libc.a(lib_a-makebuf.o)
                0x0000000080014570                __swhatbuf_r
                0x0000000080014618                __smakebuf_r
 *fill*         0x0000000080014724        0x4 00000000
 .text          0x0000000080014728      0x840 /usr/bin/../lib/gcc/aarch64-elf/7.3.1/../../../../aarch64-elf/lib/libc.a(lib_a-mallocr.o)
                0x0000000080014728                _malloc_r
 .text          0x0000000080014f68      0x18c /usr/bin/../lib/gcc/aarch64-elf/7.3.1/../../../../aarch64-elf/lib/libc.a(lib_a-mbrtowc.o)
                0x0000000080014f68                _mbrtowc_r
                0x0000000080015028                mbrtowc
 *fill*         0x00000000800150f4        0x4 00000000
 .text          0x00000000800150f8      0x6e4 /usr/bin/../lib/gcc/aarch64-elf/7.3.1/../../../../aarch64-elf/lib/libc.a(lib_a-mbtowc_r.o)
                0x00000000800150f8                _mbtowc_r
                0x0000000080015120                __ascii_mbtowc
                0x0000000080015160                __utf8_mbtowc
                0x0000000080015428                __sjis_mbtowc
                0x00000000800154f8                __eucjp_mbtowc
                0x0000000080015618                __jis_mbtowc
 .text          0x00000000800157dc       0xd8 /usr/bin/../lib/gcc/aarch64-elf/7.3.1/../../../../aarch64-elf/lib/libc.a(lib_a-memchr.o)
                0x00000000800157dc                memchr
 *fill*         0x00000000800158b4        0xc 00000000
 .text          0x00000000800158c0      0x16c /usr/bin/../lib/gcc/aarch64-elf/7.3.1/../../../../aarch64-elf/lib/libc.a(lib_a-memcpy.o)
                0x00000000800158c0                memcpy
 *fill*         0x0000000080015a2c       0x14 00000000
 .text          0x0000000080015a40       0xac /usr/bin/../lib/gcc/aarch64-elf/7.3.1/../../../../aarch64-elf/lib/libc.a(lib_a-memmove.o)
                0x0000000080015a40                memmove
 *fill*         0x0000000080015aec        0x4 00000000
 .text          0x0000000080015af0        0xc /usr/bin/../lib/gcc/aarch64-elf/7.3.1/../../../../aarch64-elf/lib/libc.a(lib_a-mlock.o)
                0x0000000080015af0                __malloc_lock
                0x0000000080015af8                __malloc_unlock
 *fill*         0x0000000080015afc        0x4 00000000
 .text          0x0000000080015b00      0xe74 /usr/bin/../lib/gcc/aarch64-elf/7.3.1/../../../../aarch64-elf/lib/libc.a(lib_a-mprec.o)
                0x0000000080015b00                _Balloc
                0x0000000080015ba8                _Bfree
                0x0000000080015bc8                __multadd
                0x0000000080015cb0                __s2b
                0x0000000080015dd0                __hi0bits
                0x0000000080015e30                __lo0bits
                0x0000000080015ed0                __i2b
                0x0000000080015f00                __multiply
                0x00000000800160d0                __pow5mult
                0x00000000800161f8                __lshift
                0x0000000080016338                __mcmp
                0x0000000080016388                __mdiff
                0x0000000080016518                __ulp
                0x0000000080016588                __b2d
                0x00000000800166a8                __d2b
                0x00000000800167c8                __ratio
                0x0000000080016850                _mprec_log10
                0x0000000080016888                __copybits
                0x00000000800168f0                __any_on
 *fill*         0x0000000080016974        0x4 00000000
 .text          0x0000000080016978      0x54c /usr/bin/../lib/gcc/aarch64-elf/7.3.1/../../../../aarch64-elf/lib/libc.a(lib_a-reallocr.o)
                0x0000000080016978                _realloc_r
 *fill*         0x0000000080016ec4        0x4 00000000
 .text          0x0000000080016ec8      0x144 /usr/bin/../lib/gcc/aarch64-elf/7.3.1/../../../../aarch64-elf/lib/libc.a(lib_a-reent.o)
                0x0000000080016ec8                cleanup_glue
                0x0000000080016f10                _reclaim_reent
 *fill*         0x000000008001700c        0x4 00000000
 .text          0x0000000080017010      0x21c /usr/bin/../lib/gcc/aarch64-elf/7.3.1/../../../../aarch64-elf/lib/libc.a(lib_a-refill.o)
                0x0000000080017030                __srefill_r
 *fill*         0x000000008001722c        0x4 00000000
 .text          0x0000000080017230       0x7c /usr/bin/../lib/gcc/aarch64-elf/7.3.1/../../../../aarch64-elf/lib/libc.a(lib_a-s_frexp.o)
                0x0000000080017230                frexp
 *fill*         0x00000000800172ac        0x4 00000000
 .text          0x00000000800172b0       0x4c /usr/bin/../lib/gcc/aarch64-elf/7.3.1/../../../../aarch64-elf/lib/libc.a(lib_a-sbrkr.o)
                0x00000000800172b0                _sbrk_r
 *fill*         0x00000000800172fc        0x4 00000000
 .text          0x0000000080017300       0xbc /usr/bin/../lib/gcc/aarch64-elf/7.3.1/../../../../aarch64-elf/lib/libc.a(lib_a-sccl.o)
                0x0000000080017300                __sccl
 *fill*         0x00000000800173bc        0x4 00000000
 .text          0x00000000800173c0        0xc /usr/bin/../lib/gcc/aarch64-elf/7.3.1/../../../../aarch64-elf/lib/libc.a(lib_a-sf_nan.o)
                0x00000000800173c0                nanf
 *fill*         0x00000000800173cc        0x4 00000000
 .text          0x00000000800173d0      0x14c /usr/bin/../lib/gcc/aarch64-elf/7.3.1/../../../../aarch64-elf/lib/libc.a(lib_a-sprintf.o)
                0x00000000800173d0                _sprintf_r
                0x0000000080017470                sprintf
 *fill*         0x000000008001751c        0x4 00000000
 .text          0x0000000080017520      0x118 /usr/bin/../lib/gcc/aarch64-elf/7.3.1/../../../../aarch64-elf/lib/libc.a(lib_a-stdio.o)
                0x0000000080017520                __sread
                0x0000000080017570                __seofread
                0x0000000080017578                __swrite
                0x00000000800175e0                __sseek
                0x0000000080017630                __sclose
 .text          0x0000000080017638       0xc0 /usr/bin/../lib/gcc/aarch64-elf/7.3.1/../../../../aarch64-elf/lib/libc.a(lib_a-stpncpy.o)
                0x0000000080017638                stpncpy
 .text          0x00000000800176f8       0xa0 /usr/bin/../lib/gcc/aarch64-elf/7.3.1/../../../../aarch64-elf/lib/libc.a(lib_a-strcasecmp.o)
                0x00000000800176f8                strcasecmp
 .text          0x0000000080017798       0x74 /usr/bin/../lib/gcc/aarch64-elf/7.3.1/../../../../aarch64-elf/lib/libc.a(lib_a-strcat.o)
                0x0000000080017798                strcat
 .text          0x000000008001780c       0xdc /usr/bin/../lib/gcc/aarch64-elf/7.3.1/../../../../aarch64-elf/lib/libc.a(lib_a-strchr.o)
                0x000000008001780c                strchr
 *fill*         0x00000000800178e8       0x18 00000000
 .text          0x0000000080017900       0xa4 /usr/bin/../lib/gcc/aarch64-elf/7.3.1/../../../../aarch64-elf/lib/libc.a(lib_a-strcmp.o)
                0x0000000080017900                strcmp
 *fill*         0x00000000800179a4       0x1c 00000000
 .text          0x00000000800179c0      0x1b8 /usr/bin/../lib/gcc/aarch64-elf/7.3.1/../../../../aarch64-elf/lib/libc.a(lib_a-strcpy.o)
                0x00000000800179c0                strcpy
 .text          0x0000000080017b78       0x44 /usr/bin/../lib/gcc/aarch64-elf/7.3.1/../../../../aarch64-elf/lib/libc.a(lib_a-strlcpy.o)
                0x0000000080017b78                strlcpy
 *fill*         0x0000000080017bbc        0x4 00000000
 .text          0x0000000080017bc0       0xcc /usr/bin/../lib/gcc/aarch64-elf/7.3.1/../../../../aarch64-elf/lib/libc.a(lib_a-strncasecmp.o)
                0x0000000080017bc0                strncasecmp
 *fill*         0x0000000080017c8c       0x34 00000000
 .text          0x0000000080017cc0      0x124 /usr/bin/../lib/gcc/aarch64-elf/7.3.1/../../../../aarch64-elf/lib/libc.a(lib_a-strncmp.o)
                0x0000000080017cdc                strncmp
 *fill*         0x0000000080017de4        0x4 00000000
 .text          0x0000000080017de8       0xb0 /usr/bin/../lib/gcc/aarch64-elf/7.3.1/../../../../aarch64-elf/lib/libc.a(lib_a-strncpy.o)
                0x0000000080017de8                strncpy
 .text          0x0000000080017e98     0x1268 /usr/bin/../lib/gcc/aarch64-elf/7.3.1/../../../../aarch64-elf/lib/libc.a(lib_a-strtod.o)
                0x0000000080017e98                _strtod_l
                0x0000000080018f78                _strtod_r
                0x0000000080018f98                strtod_l
                0x0000000080018fb0                strtod
                0x0000000080018fe0                strtof_l
                0x0000000080019068                strtof
 .text          0x0000000080019100      0x240 /usr/bin/../lib/gcc/aarch64-elf/7.3.1/../../../../aarch64-elf/lib/libc.a(lib_a-strtol.o)
                0x00000000800192d0                _strtol_r
                0x00000000800192f0                strtol_l
                0x0000000080019310                strtol
 .text          0x0000000080019340       0xc0 /usr/bin/../lib/gcc/aarch64-elf/7.3.1/../../../../aarch64-elf/lib/libc.a(lib_a-strtold.o)
                0x0000000080019340                _strtold_r
                0x0000000080019380                strtold_l
                0x00000000800193b8                strtold
 .text          0x0000000080019400      0x240 /usr/bin/../lib/gcc/aarch64-elf/7.3.1/../../../../aarch64-elf/lib/libc.a(lib_a-strtoll.o)
                0x00000000800195d0                _strtoll_r
                0x00000000800195f0                strtoll_l
                0x0000000080019610                strtoll
 .text          0x0000000080019640      0x12c /usr/bin/../lib/gcc/aarch64-elf/7.3.1/../../../../aarch64-elf/lib/libc.a(lib_a-strtorx.o)
                0x0000000080019640                ULtox
                0x00000000800196f0                _strtorx_l
 *fill*         0x000000008001976c        0x4 00000000
 .text          0x0000000080019770      0x250 /usr/bin/../lib/gcc/aarch64-elf/7.3.1/../../../../aarch64-elf/lib/libc.a(lib_a-strtoul.o)
                0x0000000080019950                _strtoul_r
                0x0000000080019970                strtoul_l
                0x0000000080019990                strtoul
 .text          0x00000000800199c0      0x250 /usr/bin/../lib/gcc/aarch64-elf/7.3.1/../../../../aarch64-elf/lib/libc.a(lib_a-strtoull.o)
                0x0000000080019ba0                _strtoull_r
                0x0000000080019bc0                strtoull_l
                0x0000000080019be0                strtoull
 .text          0x0000000080019c10     0x6ee8 /usr/bin/../lib/gcc/aarch64-elf/7.3.1/../../../../aarch64-elf/lib/libc.a(lib_a-svfiprintf.o)
                0x000000008001d460                __ssprint_r
                0x000000008001d668                _svfiprintf_r
 .text          0x0000000080020af8     0x83bc /usr/bin/../lib/gcc/aarch64-elf/7.3.1/../../../../aarch64-elf/lib/libc.a(lib_a-svfprintf.o)
                0x00000000800244a8                _svfprintf_r
 *fill*         0x0000000080028eb4        0x4 00000000
 .text          0x0000000080028eb8      0x2b4 /usr/bin/../lib/gcc/aarch64-elf/7.3.1/../../../../aarch64-elf/lib/libc.a(lib_a-ungetc.o)
                0x0000000080028eb8                __submore
                0x0000000080028f90                _ungetc_r
                0x0000000080029158                ungetc
 *fill*         0x000000008002916c        0x4 00000000
 .text          0x0000000080029170     0x6ec0 /usr/bin/../lib/gcc/aarch64-elf/7.3.1/../../../../aarch64-elf/lib/libc.a(lib_a-vfiprintf.o)
                0x000000008002cc08                __sprint_r
                0x000000008002cc20                _vfiprintf_r
                0x000000008002ff28                vfiprintf
 .text          0x0000000080030030      0x238 /usr/bin/../lib/gcc/aarch64-elf/7.3.1/../../../../aarch64-elf/lib/libc.a(lib_a-wcsnrtombs.o)
                0x0000000080030030                _wcsnrtombs_l
                0x0000000080030208                _wcsnrtombs_r
                0x0000000080030230                wcsnrtombs
 .text          0x0000000080030268      0x310 /usr/bin/../lib/gcc/aarch64-elf/7.3.1/../../../../aarch64-elf/lib/libc.a(lib_a-wctomb_r.o)
                0x0000000080030268                _wctomb_r
                0x0000000080030290                __ascii_wctomb
                0x00000000800302c0                __utf8_wctomb
                0x00000000800303a0                __sjis_wctomb
                0x0000000080030420                __eucjp_wctomb
                0x00000000800304c8                __jis_wctomb
 .text          0x0000000080030578       0x90 /usr/bin/../lib/gcc/aarch64-elf/7.3.1/../../../../aarch64-elf/lib/libc.a(lib_a-callocr.o)
                0x0000000080030578                _calloc_r
 .text          0x0000000080030608       0x4c /usr/bin/../lib/gcc/aarch64-elf/7.3.1/../../../../aarch64-elf/lib/libc.a(lib_a-closer.o)
                0x0000000080030608                _close_r
 *fill*         0x0000000080030654        0x4 00000000
 .text          0x0000000080030658       0x10 /usr/bin/../lib/gcc/aarch64-elf/7.3.1/../../../../aarch64-elf/lib/libc.a(lib_a-ctype_.o)
                0x0000000080030658                __set_ctype
 .text          0x0000000080030668      0x100 /usr/bin/../lib/gcc/aarch64-elf/7.3.1/../../../../aarch64-elf/lib/libc.a(lib_a-fclose.o)
                0x0000000080030668                _fclose_r
                0x0000000080030758                fclose
 .text          0x0000000080030768      0x1cc /usr/bin/../lib/gcc/aarch64-elf/7.3.1/../../../../aarch64-elf/lib/libc.a(lib_a-fputwc.o)
                0x0000000080030768                __fputwc
                0x00000000800308a8                _fputwc_r
                0x00000000800308c8                fputwc
 *fill*         0x0000000080030934        0x4 00000000
 .text          0x0000000080030938       0x54 /usr/bin/../lib/gcc/aarch64-elf/7.3.1/../../../../aarch64-elf/lib/libc.a(lib_a-fstatr.o)
                0x0000000080030938                _fstat_r
 *fill*         0x000000008003098c        0x4 00000000
 .text          0x0000000080030990      0x89c /usr/bin/../lib/gcc/aarch64-elf/7.3.1/../../../../aarch64-elf/lib/libc.a(lib_a-gdtoa-gethex.o)
                0x0000000080030a88                __gethex
 *fill*         0x000000008003122c        0x4 00000000
 .text          0x0000000080031230      0x270 /usr/bin/../lib/gcc/aarch64-elf/7.3.1/../../../../aarch64-elf/lib/libc.a(lib_a-gdtoa-hexnan.o)
                0x0000000080031230                __match
                0x0000000080031278                __hexnan
 .text          0x00000000800314a0      0x128 /usr/bin/../lib/gcc/aarch64-elf/7.3.1/../../../../aarch64-elf/lib/libc.a(lib_a-getenv_r.o)
                0x00000000800314a0                _findenv_r
                0x00000000800315b0                _getenv_r
 .text          0x00000000800315c8       0x4c /usr/bin/../lib/gcc/aarch64-elf/7.3.1/../../../../aarch64-elf/lib/libc.a(lib_a-isattyr.o)
                0x00000000800315c8                _isatty_r
 *fill*         0x0000000080031614        0x4 00000000
 .text          0x0000000080031618       0x5c /usr/bin/../lib/gcc/aarch64-elf/7.3.1/../../../../aarch64-elf/lib/libc.a(lib_a-lseekr.o)
                0x0000000080031618                _lseek_r
 *fill*         0x0000000080031674        0x4 00000000
 .text          0x0000000080031678       0x5c /usr/bin/../lib/gcc/aarch64-elf/7.3.1/../../../../aarch64-elf/lib/libc.a(lib_a-readr.o)
                0x0000000080031678                _read_r
 *fill*         0x00000000800316d4        0x4 00000000
 .text          0x00000000800316d8     0x1fb8 /usr/bin/../lib/gcc/aarch64-elf/7.3.1/../../../../aarch64-elf/lib/libc.a(lib_a-strtodg.o)
                0x00000000800317d0                increment
                0x0000000080031c68                decrement
                0x0000000080031ca0                set_ones
                0x0000000080031d68                _strtodg_l
 .text          0x0000000080033690      0x164 /usr/bin/../lib/gcc/aarch64-elf/7.3.1/../../../../aarch64-elf/lib/libc.a(lib_a-wbuf.o)
                0x0000000080033690                __swbuf_r
                0x00000000800337e0                __swbuf
 .text          0x00000000800337f4        0x0 /usr/bin/../lib/gcc/aarch64-elf/7.3.1/../../../../aarch64-elf/lib/libc.a(lib_a-environ.o)
 *fill*         0x00000000800337f4        0x4 00000000
 .text          0x00000000800337f8        0xc /usr/bin/../lib/gcc/aarch64-elf/7.3.1/../../../../aarch64-elf/lib/libc.a(lib_a-envlock.o)
                0x00000000800337f8                __env_lock
                0x0000000080033800                __env_unlock
 *fill*         0x0000000080033804        0x4 00000000
 .text          0x0000000080033808        0xc /usr/bin/../lib/gcc/aarch64-elf/7.3.1/../../../../aarch64-elf/lib/libc.a(lib_a-errno.o)
                0x0000000080033808                __errno
 *fill*         0x0000000080033814        0x4 00000000
 .text          0x0000000080033818     0x1088 /usr/bin/../lib/gcc/aarch64-elf/7.3.1/../../../../aarch64-elf/lib/librdimon.a(rdimon-syscalls.o)
                0x00000000800338b8                _swiread
                0x0000000080033908                _read
                0x00000000800339c0                _swilseek
                0x0000000080033b00                _lseek
                0x0000000080033b08                _swiwrite
                0x0000000080033b58                _write
                0x0000000080033c40                _swiclose
                0x0000000080033c88                _close
                0x0000000080033d70                _getpid
                0x0000000080033d78                _sbrk
                0x0000000080033df0                _swistat
                0x0000000080033f58                _fstat
                0x0000000080033f60                _stat
                0x0000000080034150                _swiopen
                0x0000000080034178                _open
                0x0000000080034190                _get_semihosting_exts
                0x0000000080034340                _has_ext_exit_extended
                0x0000000080034380                _has_ext_stdout_stderr
                0x00000000800343c0                initialise_monitor_handles
                0x0000000080034568                _link
                0x0000000080034588                _unlink
                0x0000000080034600                _gettimeofday
                0x0000000080034658                _clock
                0x0000000080034688                _times
                0x00000000800346c8                _isatty
                0x0000000080034758                _system
                0x00000000800347e0                _rename
                0x0000000080034858                __aarch64_angel_elapsed
 .text          0x00000000800348a0       0x6c /usr/bin/../lib/gcc/aarch64-elf/7.3.1/../../../../aarch64-elf/lib/librdimon.a(rdimon-_exit.o)
                0x00000000800348a0                _exit
 *fill*         0x000000008003490c        0x4 00000000
 .text          0x0000000080034910      0x10c /usr/bin/../lib/gcc/aarch64-elf/7.3.1/libgcc.a(eqtf2.o)
                0x0000000080034910                __eqtf2
                0x0000000080034910                __netf2
 *fill*         0x0000000080034a1c        0x4 00000000
 .text          0x0000000080034a20      0x144 /usr/bin/../lib/gcc/aarch64-elf/7.3.1/libgcc.a(getf2.o)
                0x0000000080034a20                __getf2
                0x0000000080034a20                __gttf2
 *fill*         0x0000000080034b64        0x4 00000000
 .text          0x0000000080034b68      0x144 /usr/bin/../lib/gcc/aarch64-elf/7.3.1/libgcc.a(letf2.o)
                0x0000000080034b68                __letf2
                0x0000000080034b68                __lttf2
 *fill*         0x0000000080034cac        0x4 00000000
 .text          0x0000000080034cb0      0x7dc /usr/bin/../lib/gcc/aarch64-elf/7.3.1/libgcc.a(multf3.o)
                0x0000000080034cb0                __multf3
 *fill*         0x000000008003548c        0x4 00000000
 .text          0x0000000080035490      0xbfc /usr/bin/../lib/gcc/aarch64-elf/7.3.1/libgcc.a(subtf3.o)
                0x0000000080035490                __subtf3
 *fill*         0x000000008003608c        0x4 00000000
 .text          0x0000000080036090       0xf4 /usr/bin/../lib/gcc/aarch64-elf/7.3.1/libgcc.a(fixtfsi.o)
                0x0000000080036090                __fixtfsi
 *fill*         0x0000000080036184        0x4 00000000
 .text          0x0000000080036188       0x7c /usr/bin/../lib/gcc/aarch64-elf/7.3.1/libgcc.a(floatsitf.o)
                0x0000000080036188                __floatsitf
 *fill*         0x0000000080036204        0x4 00000000
 .text          0x0000000080036208      0x10c /usr/bin/../lib/gcc/aarch64-elf/7.3.1/libgcc.a(extenddftf2.o)
                0x0000000080036208                __extenddftf2
 *fill*         0x0000000080036314        0x4 00000000
 .text          0x0000000080036318      0x33c /usr/bin/../lib/gcc/aarch64-elf/7.3.1/libgcc.a(trunctfdf2.o)
                0x0000000080036318                __trunctfdf2
 *fill*         0x0000000080036654        0x4 00000000
 .text          0x0000000080036658       0x70 /usr/bin/../lib/gcc/aarch64-elf/7.3.1/libgcc.a(sfp-exceptions.o)
                0x0000000080036658                __sfp_handle_exceptions
 .text          0x00000000800366c8        0x0 /usr/bin/../lib/gcc/aarch64-elf/7.3.1/crtend.o
 .text          0x00000000800366c8        0x0 /usr/bin/../lib/gcc/aarch64-elf/7.3.1/crtn.o
 *(.gnu.warning)

.fini           0x00000000800366c8       0x34
 *(SORT(.fini))
 .fini          0x00000000800366c8       0x18 /usr/bin/../lib/gcc/aarch64-elf/7.3.1/crti.o
                0x00000000800366c8                _fini
 .fini          0x00000000800366e0       0x1c /usr/bin/../lib/gcc/aarch64-elf/7.3.1/crtn.o
                [!provide]                        PROVIDE (__etext, .)
                [!provide]                        PROVIDE (_etext, .)
                [!provide]                        PROVIDE (etext, .)

.rodata         0x0000000080036700     0xa7c0
 *(.rodata .rodata.* .gnu.linkonce.r.*)
 .rodata.cst8   0x0000000080036700       0x20 /usr/bin/../lib/gcc/aarch64-elf/7.3.1/crtbegin.o
 .rodata        0x0000000080036720       0x55 02_recursiveSum.o
 *fill*         0x0000000080036775        0x3 
 .rodata.cst8   0x0000000080036778       0x10 /usr/bin/../lib/gcc/aarch64-elf/7.3.1/../../../../aarch64-elf/lib/libc.a(lib_a-fini.o)
 .rodata        0x0000000080036788        0x8 /usr/bin/../lib/gcc/aarch64-elf/7.3.1/../../../../aarch64-elf/lib/libc.a(lib_a-impure.o)
                0x0000000080036788                _global_impure_ptr
 .rodata.cst8   0x0000000080036790       0x20 /usr/bin/../lib/gcc/aarch64-elf/7.3.1/../../../../aarch64-elf/lib/libc.a(lib_a-init.o)
 .rodata.str1.8
                0x00000000800367b0        0x2 /usr/bin/../lib/gcc/aarch64-elf/7.3.1/../../../../aarch64-elf/lib/libc.a(lib_a-puts.o)
 *fill*         0x00000000800367b2        0x6 
 .rodata        0x00000000800367b8     0x18b0 /usr/bin/../lib/gcc/aarch64-elf/7.3.1/../../../../aarch64-elf/lib/libc.a(lib_a-vfprintf.o)
 *fill*         0x0000000080038068        0x8 
 .rodata.cst16  0x0000000080038070       0x30 /usr/bin/../lib/gcc/aarch64-elf/7.3.1/../../../../aarch64-elf/lib/libc.a(lib_a-vfprintf.o)
 .rodata.str1.8
                0x00000000800380a0       0x5a /usr/bin/../lib/gcc/aarch64-elf/7.3.1/../../../../aarch64-elf/lib/libc.a(lib_a-vfprintf.o)
 *fill*         0x00000000800380fa        0x6 
 .rodata        0x0000000080038100      0x1ba /usr/bin/../lib/gcc/aarch64-elf/7.3.1/../../../../aarch64-elf/lib/libc.a(lib_a-vfscanf.o)
 *fill*         0x00000000800382ba        0x6 
 .rodata.str1.8
                0x00000000800382c0        0x5 /usr/bin/../lib/gcc/aarch64-elf/7.3.1/../../../../aarch64-elf/lib/libc.a(lib_a-vfscanf.o)
 *fill*         0x00000000800382c5        0x3 
 .rodata.cst8   0x00000000800382c8        0x8 /usr/bin/../lib/gcc/aarch64-elf/7.3.1/../../../../aarch64-elf/lib/libc.a(lib_a-__atexit.o)
 .rodata.cst8   0x00000000800382d0        0x8 /usr/bin/../lib/gcc/aarch64-elf/7.3.1/../../../../aarch64-elf/lib/libc.a(lib_a-__call_atexit.o)
 .rodata        0x00000000800382d8     0x34e2 /usr/bin/../lib/gcc/aarch64-elf/7.3.1/../../../../aarch64-elf/lib/libc.a(lib_a-jp2uc.o)
 *fill*         0x000000008003b7ba        0x6 
 .rodata.str1.8
                0x000000008003b7c0       0x16 /usr/bin/../lib/gcc/aarch64-elf/7.3.1/../../../../aarch64-elf/lib/libc.a(lib_a-jp2uc.o)
 *fill*         0x000000008003b7d6        0x2 
 .rodata        0x000000008003b7d8      0x262 /usr/bin/../lib/gcc/aarch64-elf/7.3.1/../../../../aarch64-elf/lib/libc.a(lib_a-ldtoa.o)
 *fill*         0x000000008003ba3a        0x6 
 .rodata.str1.8
                0x000000008003ba40       0x34 /usr/bin/../lib/gcc/aarch64-elf/7.3.1/../../../../aarch64-elf/lib/libc.a(lib_a-ldtoa.o)
 *fill*         0x000000008003ba74        0x4 
 .rodata        0x000000008003ba78      0x250 /usr/bin/../lib/gcc/aarch64-elf/7.3.1/../../../../aarch64-elf/lib/libc.a(lib_a-locale.o)
                0x000000008003bb20                __C_locale
 .rodata.str1.8
                0x000000008003bcc8      0x16c /usr/bin/../lib/gcc/aarch64-elf/7.3.1/../../../../aarch64-elf/lib/libc.a(lib_a-locale.o)
                                        0x18c (size before relaxing)
 .rodata.str1.8
                0x000000008003be34        0x1 /usr/bin/../lib/gcc/aarch64-elf/7.3.1/../../../../aarch64-elf/lib/libc.a(lib_a-mbrtowc.o)
 *fill*         0x000000008003be34        0x4 
 .rodata        0x000000008003be38       0x90 /usr/bin/../lib/gcc/aarch64-elf/7.3.1/../../../../aarch64-elf/lib/libc.a(lib_a-mbtowc_r.o)
 .rodata        0x000000008003bec8      0x128 /usr/bin/../lib/gcc/aarch64-elf/7.3.1/../../../../aarch64-elf/lib/libc.a(lib_a-mprec.o)
                0x000000008003bed8                __mprec_tens
                0x000000008003bfa0                __mprec_tinytens
                0x000000008003bfc8                __mprec_bigtens
 .rodata.cst8   0x000000008003bff0       0x18 /usr/bin/../lib/gcc/aarch64-elf/7.3.1/../../../../aarch64-elf/lib/libc.a(lib_a-strtod.o)
 .rodata        0x000000008003c008       0x58 /usr/bin/../lib/gcc/aarch64-elf/7.3.1/../../../../aarch64-elf/lib/libc.a(lib_a-strtod.o)
 .rodata.str1.8
                0x000000008003c060       0x13 /usr/bin/../lib/gcc/aarch64-elf/7.3.1/../../../../aarch64-elf/lib/libc.a(lib_a-strtod.o)
 *fill*         0x000000008003c073        0x5 
 .rodata        0x000000008003c078     0x1a58 /usr/bin/../lib/gcc/aarch64-elf/7.3.1/../../../../aarch64-elf/lib/libc.a(lib_a-svfiprintf.o)
                0x000000008003d8d0                __chclass
                0x000000008003d9d0                __state_table
                0x000000008003da40                __action_table
 .rodata.str1.8
                0x000000008003dad0       0x37 /usr/bin/../lib/gcc/aarch64-elf/7.3.1/../../../../aarch64-elf/lib/libc.a(lib_a-svfiprintf.o)
 .rodata        0x000000008003dad0     0x18b0 /usr/bin/../lib/gcc/aarch64-elf/7.3.1/../../../../aarch64-elf/lib/libc.a(lib_a-svfprintf.o)
 .rodata.cst16  0x000000008003f380       0x30 /usr/bin/../lib/gcc/aarch64-elf/7.3.1/../../../../aarch64-elf/lib/libc.a(lib_a-svfprintf.o)
 .rodata.str1.8
                0x000000008003f380       0x5a /usr/bin/../lib/gcc/aarch64-elf/7.3.1/../../../../aarch64-elf/lib/libc.a(lib_a-svfprintf.o)
 .rodata        0x000000008003f380     0x18b0 /usr/bin/../lib/gcc/aarch64-elf/7.3.1/../../../../aarch64-elf/lib/libc.a(lib_a-vfiprintf.o)
 .rodata.str1.8
                0x0000000080040c30       0x37 /usr/bin/../lib/gcc/aarch64-elf/7.3.1/../../../../aarch64-elf/lib/libc.a(lib_a-vfiprintf.o)
 .rodata        0x0000000080040c30      0x101 /usr/bin/../lib/gcc/aarch64-elf/7.3.1/../../../../aarch64-elf/lib/libc.a(lib_a-ctype_.o)
                0x0000000080040c30                _ctype_
 *fill*         0x0000000080040d31        0x7 
 .rodata        0x0000000080040d38      0x100 /usr/bin/../lib/gcc/aarch64-elf/7.3.1/../../../../aarch64-elf/lib/libc.a(lib_a-gdtoa-gethex.o)
                0x0000000080040d38                __hexdig
 .rodata.cst8   0x0000000080040e38        0x8 /usr/bin/../lib/gcc/aarch64-elf/7.3.1/../../../../aarch64-elf/lib/libc.a(lib_a-strtodg.o)
 .rodata        0x0000000080040e40       0x5c /usr/bin/../lib/gcc/aarch64-elf/7.3.1/../../../../aarch64-elf/lib/libc.a(lib_a-strtodg.o)
 .rodata.str1.8
                0x0000000080040e9c       0x13 /usr/bin/../lib/gcc/aarch64-elf/7.3.1/../../../../aarch64-elf/lib/libc.a(lib_a-strtodg.o)
 *fill*         0x0000000080040e9c        0x4 
 .rodata.str1.8
                0x0000000080040ea0       0x20 /usr/bin/../lib/gcc/aarch64-elf/7.3.1/../../../../aarch64-elf/lib/librdimon.a(rdimon-syscalls.o)
                                         0x1c (size before relaxing)

.rodata1
 *(.rodata1)

.eh_frame_hdr
 *(.eh_frame_hdr)
 *(.eh_frame_entry .eh_frame_entry.*)

.eh_frame       0x0000000080040ec0        0x4
 *(.eh_frame)
 .eh_frame      0x0000000080040ec0        0x0 /usr/bin/../lib/gcc/aarch64-elf/7.3.1/crtbegin.o
 .eh_frame      0x0000000080040ec0        0x4 /usr/bin/../lib/gcc/aarch64-elf/7.3.1/crtend.o
 *(.eh_frame.*)

.gcc_except_table
 *(.gcc_except_table .gcc_except_table.*)

.gnu_extab
 *(.gnu_extab*)

.exception_ranges
 *(.exception_ranges .exception_ranges*)
                0x0000000080050ec4                . = (ALIGN (CONSTANT (MAXPAGESIZE)) + (. & (CONSTANT (MAXPAGESIZE) - 0x1)))

.eh_frame
 *(.eh_frame)
 *(.eh_frame.*)

.gnu_extab
 *(.gnu_extab)

.gcc_except_table
 *(.gcc_except_table .gcc_except_table.*)

.exception_ranges
 *(.exception_ranges .exception_ranges*)

.tdata
 *(.tdata .tdata.* .gnu.linkonce.td.*)

.tbss
 *(.tbss .tbss.* .gnu.linkonce.tb.*)
 *(.tcommon)

.preinit_array  0x0000000080050ec4        0x0
                0x0000000080050ec4                PROVIDE (__preinit_array_start, .)
 *(.preinit_array)
                0x0000000080050ec4                PROVIDE (__preinit_array_end, .)

.init_array     0x0000000080050ec8        0x8
                0x0000000080050ec8                PROVIDE (__init_array_start, .)
 *(SORT(.init_array.*) SORT(.ctors.*))
 *(.init_array EXCLUDE_FILE(*crtend?.o *crtend.o *crtbegin?.o *crtbegin.o) .ctors)
 .init_array    0x0000000080050ec8        0x8 /usr/bin/../lib/gcc/aarch64-elf/7.3.1/crtbegin.o
                0x0000000080050ed0                PROVIDE (__init_array_end, .)

.fini_array     0x0000000080050ed0        0x8
                0x0000000080050ed0                PROVIDE (__fini_array_start, .)
 *(SORT(.fini_array.*) SORT(.dtors.*))
 *(.fini_array EXCLUDE_FILE(*crtend?.o *crtend.o *crtbegin?.o *crtbegin.o) .dtors)
 .fini_array    0x0000000080050ed0        0x8 /usr/bin/../lib/gcc/aarch64-elf/7.3.1/crtbegin.o
                0x0000000080050ed8                PROVIDE (__fini_array_end, .)

.ctors
 *crtbegin.o(.ctors)
 *crtbegin?.o(.ctors)
 *(EXCLUDE_FILE(*crtend?.o *crtend.o) .ctors)
 *(SORT(.ctors.*))
 *(.ctors)

.dtors
 *crtbegin.o(.dtors)
 *crtbegin?.o(.dtors)
 *(EXCLUDE_FILE(*crtend?.o *crtend.o) .dtors)
 *(SORT(.dtors.*))
 *(.dtors)

.jcr
 *(.jcr)

.data.rel.ro
 *(.data.rel.ro.local* .gnu.linkonce.d.rel.ro.local.*)
 *(.data.rel.ro .data.rel.ro.* .gnu.linkonce.d.rel.ro.*)

.dynamic
 *(.dynamic)

.got
 *(.got)
 *(.igot)

.got.plt        0x0000000080050ed8        0x0
 *(.got.plt)
 *(.igot.plt)
 .igot.plt      0x0000000080050ed8        0x0 /usr/bin/../lib/gcc/aarch64-elf/7.3.1/crtbegin.o

.data           0x0000000080051000     0x3164
                0x0000000080051000                __data_start = .
 *(.data .data.* .gnu.linkonce.d.*)
 .data          0x0000000080051000        0x0 /usr/bin/../lib/gcc/aarch64-elf/7.3.1/crti.o
 .data          0x0000000080051000        0x8 /usr/bin/../lib/gcc/aarch64-elf/7.3.1/crtbegin.o
                0x0000000080051000                __dso_handle
 .data          0x0000000080051008      0x128 /usr/bin/../lib/gcc/aarch64-elf/7.3.1/../../../../aarch64-elf/lib/crt0.o
                0x0000000080051018                __stack_base__
 .data          0x0000000080051130        0x0 02_recursiveSum.o
 .data          0x0000000080051130        0x0 mysum.o
 *fill*         0x0000000080051130      0xed0 
 .data          0x0000000080052000     0x1000 /usr/bin/../lib/gcc/aarch64-elf/7.3.1/../../../../aarch64-elf/lib/cpu-init/rdimon-aem-el3.o
 .data          0x0000000080053000        0x0 /usr/bin/../lib/gcc/aarch64-elf/7.3.1/../../../../aarch64-elf/lib/libc.a(lib_a-atexit.o)
 .data          0x0000000080053000        0x0 /usr/bin/../lib/gcc/aarch64-elf/7.3.1/../../../../aarch64-elf/lib/libc.a(lib_a-exit.o)
 .data          0x0000000080053000        0x0 /usr/bin/../lib/gcc/aarch64-elf/7.3.1/../../../../aarch64-elf/lib/libc.a(lib_a-fini.o)
 .data          0x0000000080053000      0x750 /usr/bin/../lib/gcc/aarch64-elf/7.3.1/../../../../aarch64-elf/lib/libc.a(lib_a-impure.o)
                0x0000000080053000                _impure_ptr
 .data          0x0000000080053750        0x0 /usr/bin/../lib/gcc/aarch64-elf/7.3.1/../../../../aarch64-elf/lib/libc.a(lib_a-init.o)
 .data          0x0000000080053750        0x0 /usr/bin/../lib/gcc/aarch64-elf/7.3.1/../../../../aarch64-elf/lib/libc.a(lib_a-memset.o)
 .data          0x0000000080053750        0x0 /usr/bin/../lib/gcc/aarch64-elf/7.3.1/../../../../aarch64-elf/lib/libc.a(lib_a-printf.o)
 .data          0x0000000080053750        0x0 /usr/bin/../lib/gcc/aarch64-elf/7.3.1/../../../../aarch64-elf/lib/libc.a(lib_a-puts.o)
 .data          0x0000000080053750        0x0 /usr/bin/../lib/gcc/aarch64-elf/7.3.1/../../../../aarch64-elf/lib/libc.a(lib_a-scanf.o)
 .data          0x0000000080053750        0x0 /usr/bin/../lib/gcc/aarch64-elf/7.3.1/../../../../aarch64-elf/lib/libc.a(lib_a-strlen.o)
 .data          0x0000000080053750        0x0 /usr/bin/../lib/gcc/aarch64-elf/7.3.1/../../../../aarch64-elf/lib/libc.a(lib_a-syswrite.o)
 .data          0x0000000080053750        0x0 /usr/bin/../lib/gcc/aarch64-elf/7.3.1/../../../../aarch64-elf/lib/libc.a(lib_a-vfprintf.o)
 .data          0x0000000080053750        0x0 /usr/bin/../lib/gcc/aarch64-elf/7.3.1/../../../../aarch64-elf/lib/libc.a(lib_a-vfscanf.o)
 .data          0x0000000080053750        0x0 /usr/bin/../lib/gcc/aarch64-elf/7.3.1/../../../../aarch64-elf/lib/libc.a(lib_a-wcrtomb.o)
 .data          0x0000000080053750        0x0 /usr/bin/../lib/gcc/aarch64-elf/7.3.1/../../../../aarch64-elf/lib/libc.a(lib_a-wcsrtombs.o)
 .data          0x0000000080053750        0x0 /usr/bin/../lib/gcc/aarch64-elf/7.3.1/../../../../aarch64-elf/lib/libc.a(lib_a-writer.o)
 .data          0x0000000080053750        0x0 /usr/bin/../lib/gcc/aarch64-elf/7.3.1/../../../../aarch64-elf/lib/libc.a(lib_a-wsetup.o)
 .data          0x0000000080053750        0x0 /usr/bin/../lib/gcc/aarch64-elf/7.3.1/../../../../aarch64-elf/lib/libc.a(lib_a-__atexit.o)
 .data          0x0000000080053750        0x0 /usr/bin/../lib/gcc/aarch64-elf/7.3.1/../../../../aarch64-elf/lib/libc.a(lib_a-__call_atexit.o)
 .data          0x0000000080053750        0x0 /usr/bin/../lib/gcc/aarch64-elf/7.3.1/../../../../aarch64-elf/lib/libc.a(lib_a-fflush.o)
 .data          0x0000000080053750        0x0 /usr/bin/../lib/gcc/aarch64-elf/7.3.1/../../../../aarch64-elf/lib/libc.a(lib_a-findfp.o)
 .data          0x0000000080053750        0x0 /usr/bin/../lib/gcc/aarch64-elf/7.3.1/../../../../aarch64-elf/lib/libc.a(lib_a-fread.o)
 .data          0x0000000080053750        0x0 /usr/bin/../lib/gcc/aarch64-elf/7.3.1/../../../../aarch64-elf/lib/libc.a(lib_a-freer.o)
 .data          0x0000000080053750        0x0 /usr/bin/../lib/gcc/aarch64-elf/7.3.1/../../../../aarch64-elf/lib/libc.a(lib_a-fvwrite.o)
 .data          0x0000000080053750        0x0 /usr/bin/../lib/gcc/aarch64-elf/7.3.1/../../../../aarch64-elf/lib/libc.a(lib_a-fwalk.o)
 .data          0x0000000080053750        0x0 /usr/bin/../lib/gcc/aarch64-elf/7.3.1/../../../../aarch64-elf/lib/libc.a(lib_a-iswspace.o)
 .data          0x0000000080053750        0x0 /usr/bin/../lib/gcc/aarch64-elf/7.3.1/../../../../aarch64-elf/lib/libc.a(lib_a-jp2uc.o)
 .data          0x0000000080053750        0x0 /usr/bin/../lib/gcc/aarch64-elf/7.3.1/../../../../aarch64-elf/lib/libc.a(lib_a-ldtoa.o)
 .data          0x0000000080053750      0x1c8 /usr/bin/../lib/gcc/aarch64-elf/7.3.1/../../../../aarch64-elf/lib/libc.a(lib_a-locale.o)
                0x0000000080053750                __global_locale
                0x00000000800538f8                __default_locale
 .data          0x0000000080053918        0x0 /usr/bin/../lib/gcc/aarch64-elf/7.3.1/../../../../aarch64-elf/lib/libc.a(lib_a-localeconv.o)
 .data          0x0000000080053918        0x0 /usr/bin/../lib/gcc/aarch64-elf/7.3.1/../../../../aarch64-elf/lib/libc.a(lib_a-makebuf.o)
 .data          0x0000000080053918      0x820 /usr/bin/../lib/gcc/aarch64-elf/7.3.1/../../../../aarch64-elf/lib/libc.a(lib_a-mallocr.o)
                0x0000000080053918                __malloc_av_
                0x0000000080054128                __malloc_sbrk_base
                0x0000000080054130                __malloc_trim_threshold
 .data          0x0000000080054138        0x0 /usr/bin/../lib/gcc/aarch64-elf/7.3.1/../../../../aarch64-elf/lib/libc.a(lib_a-mbrtowc.o)
 .data          0x0000000080054138        0x0 /usr/bin/../lib/gcc/aarch64-elf/7.3.1/../../../../aarch64-elf/lib/libc.a(lib_a-mbtowc_r.o)
 .data          0x0000000080054138        0x0 /usr/bin/../lib/gcc/aarch64-elf/7.3.1/../../../../aarch64-elf/lib/libc.a(lib_a-memchr.o)
 .data          0x0000000080054138        0x0 /usr/bin/../lib/gcc/aarch64-elf/7.3.1/../../../../aarch64-elf/lib/libc.a(lib_a-memcpy.o)
 .data          0x0000000080054138        0x0 /usr/bin/../lib/gcc/aarch64-elf/7.3.1/../../../../aarch64-elf/lib/libc.a(lib_a-memmove.o)
 .data          0x0000000080054138        0x0 /usr/bin/../lib/gcc/aarch64-elf/7.3.1/../../../../aarch64-elf/lib/libc.a(lib_a-mlock.o)
 .data          0x0000000080054138        0x0 /usr/bin/../lib/gcc/aarch64-elf/7.3.1/../../../../aarch64-elf/lib/libc.a(lib_a-mprec.o)
 .data          0x0000000080054138        0x0 /usr/bin/../lib/gcc/aarch64-elf/7.3.1/../../../../aarch64-elf/lib/libc.a(lib_a-reallocr.o)
 .data          0x0000000080054138        0x0 /usr/bin/../lib/gcc/aarch64-elf/7.3.1/../../../../aarch64-elf/lib/libc.a(lib_a-reent.o)
 .data          0x0000000080054138        0x0 /usr/bin/../lib/gcc/aarch64-elf/7.3.1/../../../../aarch64-elf/lib/libc.a(lib_a-refill.o)
 .data          0x0000000080054138        0x0 /usr/bin/../lib/gcc/aarch64-elf/7.3.1/../../../../aarch64-elf/lib/libc.a(lib_a-s_frexp.o)
 .data          0x0000000080054138        0x0 /usr/bin/../lib/gcc/aarch64-elf/7.3.1/../../../../aarch64-elf/lib/libc.a(lib_a-sbrkr.o)
 .data          0x0000000080054138        0x0 /usr/bin/../lib/gcc/aarch64-elf/7.3.1/../../../../aarch64-elf/lib/libc.a(lib_a-sccl.o)
 .data          0x0000000080054138        0x0 /usr/bin/../lib/gcc/aarch64-elf/7.3.1/../../../../aarch64-elf/lib/libc.a(lib_a-sf_nan.o)
 .data          0x0000000080054138        0x0 /usr/bin/../lib/gcc/aarch64-elf/7.3.1/../../../../aarch64-elf/lib/libc.a(lib_a-sprintf.o)
 .data          0x0000000080054138        0x0 /usr/bin/../lib/gcc/aarch64-elf/7.3.1/../../../../aarch64-elf/lib/libc.a(lib_a-stdio.o)
 .data          0x0000000080054138        0x0 /usr/bin/../lib/gcc/aarch64-elf/7.3.1/../../../../aarch64-elf/lib/libc.a(lib_a-stpncpy.o)
 .data          0x0000000080054138        0x0 /usr/bin/../lib/gcc/aarch64-elf/7.3.1/../../../../aarch64-elf/lib/libc.a(lib_a-strcasecmp.o)
 .data          0x0000000080054138        0x0 /usr/bin/../lib/gcc/aarch64-elf/7.3.1/../../../../aarch64-elf/lib/libc.a(lib_a-strcat.o)
 .data          0x0000000080054138        0x0 /usr/bin/../lib/gcc/aarch64-elf/7.3.1/../../../../aarch64-elf/lib/libc.a(lib_a-strchr.o)
 .data          0x0000000080054138        0x0 /usr/bin/../lib/gcc/aarch64-elf/7.3.1/../../../../aarch64-elf/lib/libc.a(lib_a-strcmp.o)
 .data          0x0000000080054138        0x0 /usr/bin/../lib/gcc/aarch64-elf/7.3.1/../../../../aarch64-elf/lib/libc.a(lib_a-strcpy.o)
 .data          0x0000000080054138        0x0 /usr/bin/../lib/gcc/aarch64-elf/7.3.1/../../../../aarch64-elf/lib/libc.a(lib_a-strlcpy.o)
 .data          0x0000000080054138        0x0 /usr/bin/../lib/gcc/aarch64-elf/7.3.1/../../../../aarch64-elf/lib/libc.a(lib_a-strncasecmp.o)
 .data          0x0000000080054138        0x0 /usr/bin/../lib/gcc/aarch64-elf/7.3.1/../../../../aarch64-elf/lib/libc.a(lib_a-strncmp.o)
 .data          0x0000000080054138        0x0 /usr/bin/../lib/gcc/aarch64-elf/7.3.1/../../../../aarch64-elf/lib/libc.a(lib_a-strncpy.o)
 .data          0x0000000080054138        0x0 /usr/bin/../lib/gcc/aarch64-elf/7.3.1/../../../../aarch64-elf/lib/libc.a(lib_a-strtod.o)
 .data          0x0000000080054138        0x0 /usr/bin/../lib/gcc/aarch64-elf/7.3.1/../../../../aarch64-elf/lib/libc.a(lib_a-strtol.o)
 .data          0x0000000080054138        0x0 /usr/bin/../lib/gcc/aarch64-elf/7.3.1/../../../../aarch64-elf/lib/libc.a(lib_a-strtold.o)
 .data          0x0000000080054138        0x0 /usr/bin/../lib/gcc/aarch64-elf/7.3.1/../../../../aarch64-elf/lib/libc.a(lib_a-strtoll.o)
 .data          0x0000000080054138       0x14 /usr/bin/../lib/gcc/aarch64-elf/7.3.1/../../../../aarch64-elf/lib/libc.a(lib_a-strtorx.o)
 .data          0x000000008005414c        0x0 /usr/bin/../lib/gcc/aarch64-elf/7.3.1/../../../../aarch64-elf/lib/libc.a(lib_a-strtoul.o)
 .data          0x000000008005414c        0x0 /usr/bin/../lib/gcc/aarch64-elf/7.3.1/../../../../aarch64-elf/lib/libc.a(lib_a-strtoull.o)
 .data          0x000000008005414c        0x0 /usr/bin/../lib/gcc/aarch64-elf/7.3.1/../../../../aarch64-elf/lib/libc.a(lib_a-svfiprintf.o)
 .data          0x000000008005414c        0x0 /usr/bin/../lib/gcc/aarch64-elf/7.3.1/../../../../aarch64-elf/lib/libc.a(lib_a-svfprintf.o)
 .data          0x000000008005414c        0x0 /usr/bin/../lib/gcc/aarch64-elf/7.3.1/../../../../aarch64-elf/lib/libc.a(lib_a-ungetc.o)
 .data          0x000000008005414c        0x0 /usr/bin/../lib/gcc/aarch64-elf/7.3.1/../../../../aarch64-elf/lib/libc.a(lib_a-vfiprintf.o)
 .data          0x000000008005414c        0x0 /usr/bin/../lib/gcc/aarch64-elf/7.3.1/../../../../aarch64-elf/lib/libc.a(lib_a-wcsnrtombs.o)
 .data          0x000000008005414c        0x0 /usr/bin/../lib/gcc/aarch64-elf/7.3.1/../../../../aarch64-elf/lib/libc.a(lib_a-wctomb_r.o)
 .data          0x000000008005414c        0x0 /usr/bin/../lib/gcc/aarch64-elf/7.3.1/../../../../aarch64-elf/lib/libc.a(lib_a-callocr.o)
 .data          0x000000008005414c        0x0 /usr/bin/../lib/gcc/aarch64-elf/7.3.1/../../../../aarch64-elf/lib/libc.a(lib_a-closer.o)
 .data          0x000000008005414c        0x0 /usr/bin/../lib/gcc/aarch64-elf/7.3.1/../../../../aarch64-elf/lib/libc.a(lib_a-ctype_.o)
 .data          0x000000008005414c        0x0 /usr/bin/../lib/gcc/aarch64-elf/7.3.1/../../../../aarch64-elf/lib/libc.a(lib_a-fclose.o)
 .data          0x000000008005414c        0x0 /usr/bin/../lib/gcc/aarch64-elf/7.3.1/../../../../aarch64-elf/lib/libc.a(lib_a-fputwc.o)
 .data          0x000000008005414c        0x0 /usr/bin/../lib/gcc/aarch64-elf/7.3.1/../../../../aarch64-elf/lib/libc.a(lib_a-fstatr.o)
 .data          0x000000008005414c        0x0 /usr/bin/../lib/gcc/aarch64-elf/7.3.1/../../../../aarch64-elf/lib/libc.a(lib_a-gdtoa-gethex.o)
 .data          0x000000008005414c        0x0 /usr/bin/../lib/gcc/aarch64-elf/7.3.1/../../../../aarch64-elf/lib/libc.a(lib_a-gdtoa-hexnan.o)
 .data          0x000000008005414c        0x0 /usr/bin/../lib/gcc/aarch64-elf/7.3.1/../../../../aarch64-elf/lib/libc.a(lib_a-getenv_r.o)
 .data          0x000000008005414c        0x0 /usr/bin/../lib/gcc/aarch64-elf/7.3.1/../../../../aarch64-elf/lib/libc.a(lib_a-isattyr.o)
 .data          0x000000008005414c        0x0 /usr/bin/../lib/gcc/aarch64-elf/7.3.1/../../../../aarch64-elf/lib/libc.a(lib_a-lseekr.o)
 .data          0x000000008005414c        0x0 /usr/bin/../lib/gcc/aarch64-elf/7.3.1/../../../../aarch64-elf/lib/libc.a(lib_a-readr.o)
 .data          0x000000008005414c        0x0 /usr/bin/../lib/gcc/aarch64-elf/7.3.1/../../../../aarch64-elf/lib/libc.a(lib_a-strtodg.o)
 .data          0x000000008005414c        0x0 /usr/bin/../lib/gcc/aarch64-elf/7.3.1/../../../../aarch64-elf/lib/libc.a(lib_a-wbuf.o)
 *fill*         0x000000008005414c        0x4 
 .data          0x0000000080054150        0x8 /usr/bin/../lib/gcc/aarch64-elf/7.3.1/../../../../aarch64-elf/lib/libc.a(lib_a-environ.o)
                0x0000000080054150                environ
 .data          0x0000000080054158        0x0 /usr/bin/../lib/gcc/aarch64-elf/7.3.1/../../../../aarch64-elf/lib/libc.a(lib_a-envlock.o)
 .data          0x0000000080054158        0x0 /usr/bin/../lib/gcc/aarch64-elf/7.3.1/../../../../aarch64-elf/lib/libc.a(lib_a-errno.o)
 .data          0x0000000080054158        0xc /usr/bin/../lib/gcc/aarch64-elf/7.3.1/../../../../aarch64-elf/lib/librdimon.a(rdimon-syscalls.o)
 .data          0x0000000080054164        0x0 /usr/bin/../lib/gcc/aarch64-elf/7.3.1/../../../../aarch64-elf/lib/librdimon.a(rdimon-_exit.o)
 .data          0x0000000080054164        0x0 /usr/bin/../lib/gcc/aarch64-elf/7.3.1/libgcc.a(eqtf2.o)
 .data          0x0000000080054164        0x0 /usr/bin/../lib/gcc/aarch64-elf/7.3.1/libgcc.a(getf2.o)
 .data          0x0000000080054164        0x0 /usr/bin/../lib/gcc/aarch64-elf/7.3.1/libgcc.a(letf2.o)
 .data          0x0000000080054164        0x0 /usr/bin/../lib/gcc/aarch64-elf/7.3.1/libgcc.a(multf3.o)
 .data          0x0000000080054164        0x0 /usr/bin/../lib/gcc/aarch64-elf/7.3.1/libgcc.a(subtf3.o)
 .data          0x0000000080054164        0x0 /usr/bin/../lib/gcc/aarch64-elf/7.3.1/libgcc.a(fixtfsi.o)
 .data          0x0000000080054164        0x0 /usr/bin/../lib/gcc/aarch64-elf/7.3.1/libgcc.a(floatsitf.o)
 .data          0x0000000080054164        0x0 /usr/bin/../lib/gcc/aarch64-elf/7.3.1/libgcc.a(extenddftf2.o)
 .data          0x0000000080054164        0x0 /usr/bin/../lib/gcc/aarch64-elf/7.3.1/libgcc.a(trunctfdf2.o)
 .data          0x0000000080054164        0x0 /usr/bin/../lib/gcc/aarch64-elf/7.3.1/libgcc.a(sfp-exceptions.o)
 .data          0x0000000080054164        0x0 /usr/bin/../lib/gcc/aarch64-elf/7.3.1/crtend.o
 .data          0x0000000080054164        0x0 /usr/bin/../lib/gcc/aarch64-elf/7.3.1/crtn.o

.tm_clone_table
                0x0000000080054168        0x0
 .tm_clone_table
                0x0000000080054168        0x0 /usr/bin/../lib/gcc/aarch64-elf/7.3.1/crtbegin.o
 .tm_clone_table
                0x0000000080054168        0x0 /usr/bin/../lib/gcc/aarch64-elf/7.3.1/crtend.o

.data1
 *(.data1)
                0x0000000080054168                _edata = .
                [!provide]                        PROVIDE (edata, .)
                0x0000000080054168                . = .
                0x0000000080054168                __bss_start = .
                0x0000000080054168                __bss_start__ = .

.bss            0x0000000080054168      0x488
 *(.dynbss)
 *(.bss .bss.* .gnu.linkonce.b.*)
 .bss           0x0000000080054168        0x0 /usr/bin/../lib/gcc/aarch64-elf/7.3.1/crti.o
 .bss           0x0000000080054168       0x38 /usr/bin/../lib/gcc/aarch64-elf/7.3.1/crtbegin.o
 .bss           0x00000000800541a0        0x0 /usr/bin/../lib/gcc/aarch64-elf/7.3.1/../../../../aarch64-elf/lib/crt0.o
 .bss           0x00000000800541a0        0x0 02_recursiveSum.o
 .bss           0x00000000800541a0        0x0 mysum.o
 .bss           0x00000000800541a0        0x0 /usr/bin/../lib/gcc/aarch64-elf/7.3.1/../../../../aarch64-elf/lib/cpu-init/rdimon-aem-el3.o
 .bss           0x00000000800541a0        0x0 /usr/bin/../lib/gcc/aarch64-elf/7.3.1/../../../../aarch64-elf/lib/libc.a(lib_a-atexit.o)
 .bss           0x00000000800541a0        0x0 /usr/bin/../lib/gcc/aarch64-elf/7.3.1/../../../../aarch64-elf/lib/libc.a(lib_a-exit.o)
 .bss           0x00000000800541a0        0x0 /usr/bin/../lib/gcc/aarch64-elf/7.3.1/../../../../aarch64-elf/lib/libc.a(lib_a-fini.o)
 .bss           0x00000000800541a0        0x0 /usr/bin/../lib/gcc/aarch64-elf/7.3.1/../../../../aarch64-elf/lib/libc.a(lib_a-impure.o)
 .bss           0x00000000800541a0        0x0 /usr/bin/../lib/gcc/aarch64-elf/7.3.1/../../../../aarch64-elf/lib/libc.a(lib_a-init.o)
 .bss           0x00000000800541a0        0x0 /usr/bin/../lib/gcc/aarch64-elf/7.3.1/../../../../aarch64-elf/lib/libc.a(lib_a-memset.o)
 .bss           0x00000000800541a0        0x0 /usr/bin/../lib/gcc/aarch64-elf/7.3.1/../../../../aarch64-elf/lib/libc.a(lib_a-printf.o)
 .bss           0x00000000800541a0        0x0 /usr/bin/../lib/gcc/aarch64-elf/7.3.1/../../../../aarch64-elf/lib/libc.a(lib_a-puts.o)
 .bss           0x00000000800541a0        0x0 /usr/bin/../lib/gcc/aarch64-elf/7.3.1/../../../../aarch64-elf/lib/libc.a(lib_a-scanf.o)
 .bss           0x00000000800541a0        0x0 /usr/bin/../lib/gcc/aarch64-elf/7.3.1/../../../../aarch64-elf/lib/libc.a(lib_a-strlen.o)
 .bss           0x00000000800541a0        0x0 /usr/bin/../lib/gcc/aarch64-elf/7.3.1/../../../../aarch64-elf/lib/libc.a(lib_a-syswrite.o)
 .bss           0x00000000800541a0        0x0 /usr/bin/../lib/gcc/aarch64-elf/7.3.1/../../../../aarch64-elf/lib/libc.a(lib_a-vfprintf.o)
 .bss           0x00000000800541a0        0x0 /usr/bin/../lib/gcc/aarch64-elf/7.3.1/../../../../aarch64-elf/lib/libc.a(lib_a-vfscanf.o)
 .bss           0x00000000800541a0        0x0 /usr/bin/../lib/gcc/aarch64-elf/7.3.1/../../../../aarch64-elf/lib/libc.a(lib_a-wcrtomb.o)
 .bss           0x00000000800541a0        0x0 /usr/bin/../lib/gcc/aarch64-elf/7.3.1/../../../../aarch64-elf/lib/libc.a(lib_a-wcsrtombs.o)
 .bss           0x00000000800541a0        0x0 /usr/bin/../lib/gcc/aarch64-elf/7.3.1/../../../../aarch64-elf/lib/libc.a(lib_a-writer.o)
 .bss           0x00000000800541a0        0x0 /usr/bin/../lib/gcc/aarch64-elf/7.3.1/../../../../aarch64-elf/lib/libc.a(lib_a-wsetup.o)
 .bss           0x00000000800541a0        0x0 /usr/bin/../lib/gcc/aarch64-elf/7.3.1/../../../../aarch64-elf/lib/libc.a(lib_a-__atexit.o)
 .bss           0x00000000800541a0        0x0 /usr/bin/../lib/gcc/aarch64-elf/7.3.1/../../../../aarch64-elf/lib/libc.a(lib_a-__call_atexit.o)
 .bss           0x00000000800541a0        0x0 /usr/bin/../lib/gcc/aarch64-elf/7.3.1/../../../../aarch64-elf/lib/libc.a(lib_a-fflush.o)
 .bss           0x00000000800541a0        0x0 /usr/bin/../lib/gcc/aarch64-elf/7.3.1/../../../../aarch64-elf/lib/libc.a(lib_a-findfp.o)
 .bss           0x00000000800541a0        0x0 /usr/bin/../lib/gcc/aarch64-elf/7.3.1/../../../../aarch64-elf/lib/libc.a(lib_a-fread.o)
 .bss           0x00000000800541a0        0x0 /usr/bin/../lib/gcc/aarch64-elf/7.3.1/../../../../aarch64-elf/lib/libc.a(lib_a-freer.o)
 .bss           0x00000000800541a0        0x0 /usr/bin/../lib/gcc/aarch64-elf/7.3.1/../../../../aarch64-elf/lib/libc.a(lib_a-fvwrite.o)
 .bss           0x00000000800541a0        0x0 /usr/bin/../lib/gcc/aarch64-elf/7.3.1/../../../../aarch64-elf/lib/libc.a(lib_a-fwalk.o)
 .bss           0x00000000800541a0        0x0 /usr/bin/../lib/gcc/aarch64-elf/7.3.1/../../../../aarch64-elf/lib/libc.a(lib_a-iswspace.o)
 .bss           0x00000000800541a0        0x0 /usr/bin/../lib/gcc/aarch64-elf/7.3.1/../../../../aarch64-elf/lib/libc.a(lib_a-jp2uc.o)
 .bss           0x00000000800541a0        0x0 /usr/bin/../lib/gcc/aarch64-elf/7.3.1/../../../../aarch64-elf/lib/libc.a(lib_a-ldtoa.o)
 .bss           0x00000000800541a0      0x2b0 /usr/bin/../lib/gcc/aarch64-elf/7.3.1/../../../../aarch64-elf/lib/libc.a(lib_a-locale.o)
                0x0000000080054448                _PathLocale
 .bss           0x0000000080054450        0x0 /usr/bin/../lib/gcc/aarch64-elf/7.3.1/../../../../aarch64-elf/lib/libc.a(lib_a-localeconv.o)
 .bss           0x0000000080054450        0x0 /usr/bin/../lib/gcc/aarch64-elf/7.3.1/../../../../aarch64-elf/lib/libc.a(lib_a-makebuf.o)
 .bss           0x0000000080054450       0x40 /usr/bin/../lib/gcc/aarch64-elf/7.3.1/../../../../aarch64-elf/lib/libc.a(lib_a-mallocr.o)
                0x0000000080054450                __malloc_top_pad
                0x0000000080054458                __malloc_current_mallinfo
                0x0000000080054480                __malloc_max_sbrked_mem
                0x0000000080054488                __malloc_max_total_mem
 .bss           0x0000000080054490        0x0 /usr/bin/../lib/gcc/aarch64-elf/7.3.1/../../../../aarch64-elf/lib/libc.a(lib_a-mbrtowc.o)
 .bss           0x0000000080054490        0x0 /usr/bin/../lib/gcc/aarch64-elf/7.3.1/../../../../aarch64-elf/lib/libc.a(lib_a-mbtowc_r.o)
 .bss           0x0000000080054490        0x0 /usr/bin/../lib/gcc/aarch64-elf/7.3.1/../../../../aarch64-elf/lib/libc.a(lib_a-memchr.o)
 .bss           0x0000000080054490        0x0 /usr/bin/../lib/gcc/aarch64-elf/7.3.1/../../../../aarch64-elf/lib/libc.a(lib_a-memcpy.o)
 .bss           0x0000000080054490        0x0 /usr/bin/../lib/gcc/aarch64-elf/7.3.1/../../../../aarch64-elf/lib/libc.a(lib_a-memmove.o)
 .bss           0x0000000080054490        0x0 /usr/bin/../lib/gcc/aarch64-elf/7.3.1/../../../../aarch64-elf/lib/libc.a(lib_a-mlock.o)
 .bss           0x0000000080054490        0x0 /usr/bin/../lib/gcc/aarch64-elf/7.3.1/../../../../aarch64-elf/lib/libc.a(lib_a-mprec.o)
 .bss           0x0000000080054490        0x0 /usr/bin/../lib/gcc/aarch64-elf/7.3.1/../../../../aarch64-elf/lib/libc.a(lib_a-reallocr.o)
 .bss           0x0000000080054490        0x0 /usr/bin/../lib/gcc/aarch64-elf/7.3.1/../../../../aarch64-elf/lib/libc.a(lib_a-reent.o)
 .bss           0x0000000080054490        0x0 /usr/bin/../lib/gcc/aarch64-elf/7.3.1/../../../../aarch64-elf/lib/libc.a(lib_a-refill.o)
 .bss           0x0000000080054490        0x0 /usr/bin/../lib/gcc/aarch64-elf/7.3.1/../../../../aarch64-elf/lib/libc.a(lib_a-s_frexp.o)
 .bss           0x0000000080054490        0x0 /usr/bin/../lib/gcc/aarch64-elf/7.3.1/../../../../aarch64-elf/lib/libc.a(lib_a-sbrkr.o)
 .bss           0x0000000080054490        0x0 /usr/bin/../lib/gcc/aarch64-elf/7.3.1/../../../../aarch64-elf/lib/libc.a(lib_a-sccl.o)
 .bss           0x0000000080054490        0x0 /usr/bin/../lib/gcc/aarch64-elf/7.3.1/../../../../aarch64-elf/lib/libc.a(lib_a-sf_nan.o)
 .bss           0x0000000080054490        0x0 /usr/bin/../lib/gcc/aarch64-elf/7.3.1/../../../../aarch64-elf/lib/libc.a(lib_a-sprintf.o)
 .bss           0x0000000080054490        0x0 /usr/bin/../lib/gcc/aarch64-elf/7.3.1/../../../../aarch64-elf/lib/libc.a(lib_a-stdio.o)
 .bss           0x0000000080054490        0x0 /usr/bin/../lib/gcc/aarch64-elf/7.3.1/../../../../aarch64-elf/lib/libc.a(lib_a-stpncpy.o)
 .bss           0x0000000080054490        0x0 /usr/bin/../lib/gcc/aarch64-elf/7.3.1/../../../../aarch64-elf/lib/libc.a(lib_a-strcasecmp.o)
 .bss           0x0000000080054490        0x0 /usr/bin/../lib/gcc/aarch64-elf/7.3.1/../../../../aarch64-elf/lib/libc.a(lib_a-strcat.o)
 .bss           0x0000000080054490        0x0 /usr/bin/../lib/gcc/aarch64-elf/7.3.1/../../../../aarch64-elf/lib/libc.a(lib_a-strchr.o)
 .bss           0x0000000080054490        0x0 /usr/bin/../lib/gcc/aarch64-elf/7.3.1/../../../../aarch64-elf/lib/libc.a(lib_a-strcmp.o)
 .bss           0x0000000080054490        0x0 /usr/bin/../lib/gcc/aarch64-elf/7.3.1/../../../../aarch64-elf/lib/libc.a(lib_a-strcpy.o)
 .bss           0x0000000080054490        0x0 /usr/bin/../lib/gcc/aarch64-elf/7.3.1/../../../../aarch64-elf/lib/libc.a(lib_a-strlcpy.o)
 .bss           0x0000000080054490        0x0 /usr/bin/../lib/gcc/aarch64-elf/7.3.1/../../../../aarch64-elf/lib/libc.a(lib_a-strncasecmp.o)
 .bss           0x0000000080054490        0x0 /usr/bin/../lib/gcc/aarch64-elf/7.3.1/../../../../aarch64-elf/lib/libc.a(lib_a-strncmp.o)
 .bss           0x0000000080054490        0x0 /usr/bin/../lib/gcc/aarch64-elf/7.3.1/../../../../aarch64-elf/lib/libc.a(lib_a-strncpy.o)
 .bss           0x0000000080054490        0x0 /usr/bin/../lib/gcc/aarch64-elf/7.3.1/../../../../aarch64-elf/lib/libc.a(lib_a-strtod.o)
 .bss           0x0000000080054490        0x0 /usr/bin/../lib/gcc/aarch64-elf/7.3.1/../../../../aarch64-elf/lib/libc.a(lib_a-strtol.o)
 .bss           0x0000000080054490        0x0 /usr/bin/../lib/gcc/aarch64-elf/7.3.1/../../../../aarch64-elf/lib/libc.a(lib_a-strtold.o)
 .bss           0x0000000080054490        0x0 /usr/bin/../lib/gcc/aarch64-elf/7.3.1/../../../../aarch64-elf/lib/libc.a(lib_a-strtoll.o)
 .bss           0x0000000080054490        0x0 /usr/bin/../lib/gcc/aarch64-elf/7.3.1/../../../../aarch64-elf/lib/libc.a(lib_a-strtorx.o)
 .bss           0x0000000080054490        0x0 /usr/bin/../lib/gcc/aarch64-elf/7.3.1/../../../../aarch64-elf/lib/libc.a(lib_a-strtoul.o)
 .bss           0x0000000080054490        0x0 /usr/bin/../lib/gcc/aarch64-elf/7.3.1/../../../../aarch64-elf/lib/libc.a(lib_a-strtoull.o)
 .bss           0x0000000080054490        0x0 /usr/bin/../lib/gcc/aarch64-elf/7.3.1/../../../../aarch64-elf/lib/libc.a(lib_a-svfiprintf.o)
 .bss           0x0000000080054490        0x0 /usr/bin/../lib/gcc/aarch64-elf/7.3.1/../../../../aarch64-elf/lib/libc.a(lib_a-svfprintf.o)
 .bss           0x0000000080054490        0x0 /usr/bin/../lib/gcc/aarch64-elf/7.3.1/../../../../aarch64-elf/lib/libc.a(lib_a-ungetc.o)
 .bss           0x0000000080054490        0x0 /usr/bin/../lib/gcc/aarch64-elf/7.3.1/../../../../aarch64-elf/lib/libc.a(lib_a-vfiprintf.o)
 .bss           0x0000000080054490        0x0 /usr/bin/../lib/gcc/aarch64-elf/7.3.1/../../../../aarch64-elf/lib/libc.a(lib_a-wcsnrtombs.o)
 .bss           0x0000000080054490        0x0 /usr/bin/../lib/gcc/aarch64-elf/7.3.1/../../../../aarch64-elf/lib/libc.a(lib_a-wctomb_r.o)
 .bss           0x0000000080054490        0x0 /usr/bin/../lib/gcc/aarch64-elf/7.3.1/../../../../aarch64-elf/lib/libc.a(lib_a-callocr.o)
 .bss           0x0000000080054490        0x0 /usr/bin/../lib/gcc/aarch64-elf/7.3.1/../../../../aarch64-elf/lib/libc.a(lib_a-closer.o)
 .bss           0x0000000080054490        0x0 /usr/bin/../lib/gcc/aarch64-elf/7.3.1/../../../../aarch64-elf/lib/libc.a(lib_a-ctype_.o)
 .bss           0x0000000080054490        0x0 /usr/bin/../lib/gcc/aarch64-elf/7.3.1/../../../../aarch64-elf/lib/libc.a(lib_a-fclose.o)
 .bss           0x0000000080054490        0x0 /usr/bin/../lib/gcc/aarch64-elf/7.3.1/../../../../aarch64-elf/lib/libc.a(lib_a-fputwc.o)
 .bss           0x0000000080054490        0x0 /usr/bin/../lib/gcc/aarch64-elf/7.3.1/../../../../aarch64-elf/lib/libc.a(lib_a-fstatr.o)
 .bss           0x0000000080054490        0x0 /usr/bin/../lib/gcc/aarch64-elf/7.3.1/../../../../aarch64-elf/lib/libc.a(lib_a-gdtoa-gethex.o)
 .bss           0x0000000080054490        0x0 /usr/bin/../lib/gcc/aarch64-elf/7.3.1/../../../../aarch64-elf/lib/libc.a(lib_a-gdtoa-hexnan.o)
 .bss           0x0000000080054490        0x0 /usr/bin/../lib/gcc/aarch64-elf/7.3.1/../../../../aarch64-elf/lib/libc.a(lib_a-getenv_r.o)
 .bss           0x0000000080054490        0x0 /usr/bin/../lib/gcc/aarch64-elf/7.3.1/../../../../aarch64-elf/lib/libc.a(lib_a-isattyr.o)
 .bss           0x0000000080054490        0x0 /usr/bin/../lib/gcc/aarch64-elf/7.3.1/../../../../aarch64-elf/lib/libc.a(lib_a-lseekr.o)
 .bss           0x0000000080054490        0x0 /usr/bin/../lib/gcc/aarch64-elf/7.3.1/../../../../aarch64-elf/lib/libc.a(lib_a-readr.o)
 .bss           0x0000000080054490        0x0 /usr/bin/../lib/gcc/aarch64-elf/7.3.1/../../../../aarch64-elf/lib/libc.a(lib_a-strtodg.o)
 .bss           0x0000000080054490        0x0 /usr/bin/../lib/gcc/aarch64-elf/7.3.1/../../../../aarch64-elf/lib/libc.a(lib_a-wbuf.o)
 .bss           0x0000000080054490        0x8 /usr/bin/../lib/gcc/aarch64-elf/7.3.1/../../../../aarch64-elf/lib/libc.a(lib_a-environ.o)
 .bss           0x0000000080054498        0x0 /usr/bin/../lib/gcc/aarch64-elf/7.3.1/../../../../aarch64-elf/lib/libc.a(lib_a-envlock.o)
 .bss           0x0000000080054498        0x0 /usr/bin/../lib/gcc/aarch64-elf/7.3.1/../../../../aarch64-elf/lib/libc.a(lib_a-errno.o)
 .bss           0x0000000080054498      0x154 /usr/bin/../lib/gcc/aarch64-elf/7.3.1/../../../../aarch64-elf/lib/librdimon.a(rdimon-syscalls.o)
 .bss           0x00000000800545ec        0x0 /usr/bin/../lib/gcc/aarch64-elf/7.3.1/../../../../aarch64-elf/lib/librdimon.a(rdimon-_exit.o)
 .bss           0x00000000800545ec        0x0 /usr/bin/../lib/gcc/aarch64-elf/7.3.1/libgcc.a(eqtf2.o)
 .bss           0x00000000800545ec        0x0 /usr/bin/../lib/gcc/aarch64-elf/7.3.1/libgcc.a(getf2.o)
 .bss           0x00000000800545ec        0x0 /usr/bin/../lib/gcc/aarch64-elf/7.3.1/libgcc.a(letf2.o)
 .bss           0x00000000800545ec        0x0 /usr/bin/../lib/gcc/aarch64-elf/7.3.1/libgcc.a(multf3.o)
 .bss           0x00000000800545ec        0x0 /usr/bin/../lib/gcc/aarch64-elf/7.3.1/libgcc.a(subtf3.o)
 .bss           0x00000000800545ec        0x0 /usr/bin/../lib/gcc/aarch64-elf/7.3.1/libgcc.a(fixtfsi.o)
 .bss           0x00000000800545ec        0x0 /usr/bin/../lib/gcc/aarch64-elf/7.3.1/libgcc.a(floatsitf.o)
 .bss           0x00000000800545ec        0x0 /usr/bin/../lib/gcc/aarch64-elf/7.3.1/libgcc.a(extenddftf2.o)
 .bss           0x00000000800545ec        0x0 /usr/bin/../lib/gcc/aarch64-elf/7.3.1/libgcc.a(trunctfdf2.o)
 .bss           0x00000000800545ec        0x0 /usr/bin/../lib/gcc/aarch64-elf/7.3.1/libgcc.a(sfp-exceptions.o)
 .bss           0x00000000800545ec        0x0 /usr/bin/../lib/gcc/aarch64-elf/7.3.1/crtend.o
 .bss           0x00000000800545ec        0x0 /usr/bin/../lib/gcc/aarch64-elf/7.3.1/crtn.o
 *(COMMON)
 COMMON         0x00000000800545ec        0x4 /usr/bin/../lib/gcc/aarch64-elf/7.3.1/../../../../aarch64-elf/lib/libc.a(lib_a-reent.o)
                0x00000000800545ec                errno
                0x00000000800545f0                . = ALIGN ((. != 0x0)?0x8:0x1)
                0x00000000800545f0                _bss_end__ = .
                0x00000000800545f0                __bss_end__ = .
                0x00000000800545f0                . = ALIGN (0x8)
                0x00000000800545f0                . = SEGMENT_START ("ldata-segment", .)
                0x00000000800545f0                . = ALIGN (0x8)
                0x00000000800545f0                __end__ = .
                0x00000000800545f0                _end = .
                0x00000000800545f0                PROVIDE (end, .)

.stab
 *(.stab)

.stabstr
 *(.stabstr)

.stab.excl
 *(.stab.excl)

.stab.exclstr
 *(.stab.exclstr)

.stab.index
 *(.stab.index)

.stab.indexstr
 *(.stab.indexstr)

.comment        0x0000000000000000       0x74
 *(.comment)
 .comment       0x0000000000000000       0x74 /usr/bin/../lib/gcc/aarch64-elf/7.3.1/crtbegin.o
                                         0x75 (size before relaxing)
 .comment       0x0000000000000074       0x75 02_recursiveSum.o
 .comment       0x0000000000000074       0x75 /usr/bin/../lib/gcc/aarch64-elf/7.3.1/../../../../aarch64-elf/lib/libc.a(lib_a-atexit.o)
 .comment       0x0000000000000074       0x75 /usr/bin/../lib/gcc/aarch64-elf/7.3.1/../../../../aarch64-elf/lib/libc.a(lib_a-exit.o)
 .comment       0x0000000000000074       0x75 /usr/bin/../lib/gcc/aarch64-elf/7.3.1/../../../../aarch64-elf/lib/libc.a(lib_a-fini.o)
 .comment       0x0000000000000074       0x75 /usr/bin/../lib/gcc/aarch64-elf/7.3.1/../../../../aarch64-elf/lib/libc.a(lib_a-impure.o)
 .comment       0x0000000000000074       0x75 /usr/bin/../lib/gcc/aarch64-elf/7.3.1/../../../../aarch64-elf/lib/libc.a(lib_a-init.o)
 .comment       0x0000000000000074       0x75 /usr/bin/../lib/gcc/aarch64-elf/7.3.1/../../../../aarch64-elf/lib/libc.a(lib_a-printf.o)
 .comment       0x0000000000000074       0x75 /usr/bin/../lib/gcc/aarch64-elf/7.3.1/../../../../aarch64-elf/lib/libc.a(lib_a-puts.o)
 .comment       0x0000000000000074       0x75 /usr/bin/../lib/gcc/aarch64-elf/7.3.1/../../../../aarch64-elf/lib/libc.a(lib_a-scanf.o)
 .comment       0x0000000000000074       0x75 /usr/bin/../lib/gcc/aarch64-elf/7.3.1/../../../../aarch64-elf/lib/libc.a(lib_a-syswrite.o)
 .comment       0x0000000000000074       0x75 /usr/bin/../lib/gcc/aarch64-elf/7.3.1/../../../../aarch64-elf/lib/libc.a(lib_a-vfprintf.o)
 .comment       0x0000000000000074       0x75 /usr/bin/../lib/gcc/aarch64-elf/7.3.1/../../../../aarch64-elf/lib/libc.a(lib_a-vfscanf.o)
 .comment       0x0000000000000074       0x75 /usr/bin/../lib/gcc/aarch64-elf/7.3.1/../../../../aarch64-elf/lib/libc.a(lib_a-wcrtomb.o)
 .comment       0x0000000000000074       0x75 /usr/bin/../lib/gcc/aarch64-elf/7.3.1/../../../../aarch64-elf/lib/libc.a(lib_a-wcsrtombs.o)
 .comment       0x0000000000000074       0x75 /usr/bin/../lib/gcc/aarch64-elf/7.3.1/../../../../aarch64-elf/lib/libc.a(lib_a-writer.o)
 .comment       0x0000000000000074       0x75 /usr/bin/../lib/gcc/aarch64-elf/7.3.1/../../../../aarch64-elf/lib/libc.a(lib_a-wsetup.o)
 .comment       0x0000000000000074       0x75 /usr/bin/../lib/gcc/aarch64-elf/7.3.1/../../../../aarch64-elf/lib/libc.a(lib_a-__atexit.o)
 .comment       0x0000000000000074       0x75 /usr/bin/../lib/gcc/aarch64-elf/7.3.1/../../../../aarch64-elf/lib/libc.a(lib_a-__call_atexit.o)
 .comment       0x0000000000000074       0x75 /usr/bin/../lib/gcc/aarch64-elf/7.3.1/../../../../aarch64-elf/lib/libc.a(lib_a-fflush.o)
 .comment       0x0000000000000074       0x75 /usr/bin/../lib/gcc/aarch64-elf/7.3.1/../../../../aarch64-elf/lib/libc.a(lib_a-findfp.o)
 .comment       0x0000000000000074       0x75 /usr/bin/../lib/gcc/aarch64-elf/7.3.1/../../../../aarch64-elf/lib/libc.a(lib_a-fread.o)
 .comment       0x0000000000000074       0x75 /usr/bin/../lib/gcc/aarch64-elf/7.3.1/../../../../aarch64-elf/lib/libc.a(lib_a-freer.o)
 .comment       0x0000000000000074       0x75 /usr/bin/../lib/gcc/aarch64-elf/7.3.1/../../../../aarch64-elf/lib/libc.a(lib_a-fvwrite.o)
 .comment       0x0000000000000074       0x75 /usr/bin/../lib/gcc/aarch64-elf/7.3.1/../../../../aarch64-elf/lib/libc.a(lib_a-fwalk.o)
 .comment       0x0000000000000074       0x75 /usr/bin/../lib/gcc/aarch64-elf/7.3.1/../../../../aarch64-elf/lib/libc.a(lib_a-iswspace.o)
 .comment       0x0000000000000074       0x75 /usr/bin/../lib/gcc/aarch64-elf/7.3.1/../../../../aarch64-elf/lib/libc.a(lib_a-jp2uc.o)
 .comment       0x0000000000000074       0x75 /usr/bin/../lib/gcc/aarch64-elf/7.3.1/../../../../aarch64-elf/lib/libc.a(lib_a-ldtoa.o)
 .comment       0x0000000000000074       0x75 /usr/bin/../lib/gcc/aarch64-elf/7.3.1/../../../../aarch64-elf/lib/libc.a(lib_a-locale.o)
 .comment       0x0000000000000074       0x75 /usr/bin/../lib/gcc/aarch64-elf/7.3.1/../../../../aarch64-elf/lib/libc.a(lib_a-localeconv.o)
 .comment       0x0000000000000074       0x75 /usr/bin/../lib/gcc/aarch64-elf/7.3.1/../../../../aarch64-elf/lib/libc.a(lib_a-makebuf.o)
 .comment       0x0000000000000074       0x75 /usr/bin/../lib/gcc/aarch64-elf/7.3.1/../../../../aarch64-elf/lib/libc.a(lib_a-mallocr.o)
 .comment       0x0000000000000074       0x75 /usr/bin/../lib/gcc/aarch64-elf/7.3.1/../../../../aarch64-elf/lib/libc.a(lib_a-mbrtowc.o)
 .comment       0x0000000000000074       0x75 /usr/bin/../lib/gcc/aarch64-elf/7.3.1/../../../../aarch64-elf/lib/libc.a(lib_a-mbtowc_r.o)
 .comment       0x0000000000000074       0x75 /usr/bin/../lib/gcc/aarch64-elf/7.3.1/../../../../aarch64-elf/lib/libc.a(lib_a-mlock.o)
 .comment       0x0000000000000074       0x75 /usr/bin/../lib/gcc/aarch64-elf/7.3.1/../../../../aarch64-elf/lib/libc.a(lib_a-mprec.o)
 .comment       0x0000000000000074       0x75 /usr/bin/../lib/gcc/aarch64-elf/7.3.1/../../../../aarch64-elf/lib/libc.a(lib_a-reallocr.o)
 .comment       0x0000000000000074       0x75 /usr/bin/../lib/gcc/aarch64-elf/7.3.1/../../../../aarch64-elf/lib/libc.a(lib_a-reent.o)
 .comment       0x0000000000000074       0x75 /usr/bin/../lib/gcc/aarch64-elf/7.3.1/../../../../aarch64-elf/lib/libc.a(lib_a-refill.o)
 .comment       0x0000000000000074       0x75 /usr/bin/../lib/gcc/aarch64-elf/7.3.1/../../../../aarch64-elf/lib/libc.a(lib_a-s_frexp.o)
 .comment       0x0000000000000074       0x75 /usr/bin/../lib/gcc/aarch64-elf/7.3.1/../../../../aarch64-elf/lib/libc.a(lib_a-sbrkr.o)
 .comment       0x0000000000000074       0x75 /usr/bin/../lib/gcc/aarch64-elf/7.3.1/../../../../aarch64-elf/lib/libc.a(lib_a-sccl.o)
 .comment       0x0000000000000074       0x75 /usr/bin/../lib/gcc/aarch64-elf/7.3.1/../../../../aarch64-elf/lib/libc.a(lib_a-sf_nan.o)
 .comment       0x0000000000000074       0x75 /usr/bin/../lib/gcc/aarch64-elf/7.3.1/../../../../aarch64-elf/lib/libc.a(lib_a-sprintf.o)
 .comment       0x0000000000000074       0x75 /usr/bin/../lib/gcc/aarch64-elf/7.3.1/../../../../aarch64-elf/lib/libc.a(lib_a-stdio.o)
 .comment       0x0000000000000074       0x75 /usr/bin/../lib/gcc/aarch64-elf/7.3.1/../../../../aarch64-elf/lib/libc.a(lib_a-stpncpy.o)
 .comment       0x0000000000000074       0x75 /usr/bin/../lib/gcc/aarch64-elf/7.3.1/../../../../aarch64-elf/lib/libc.a(lib_a-strcasecmp.o)
 .comment       0x0000000000000074       0x75 /usr/bin/../lib/gcc/aarch64-elf/7.3.1/../../../../aarch64-elf/lib/libc.a(lib_a-strcat.o)
 .comment       0x0000000000000074       0x75 /usr/bin/../lib/gcc/aarch64-elf/7.3.1/../../../../aarch64-elf/lib/libc.a(lib_a-strlcpy.o)
 .comment       0x0000000000000074       0x75 /usr/bin/../lib/gcc/aarch64-elf/7.3.1/../../../../aarch64-elf/lib/libc.a(lib_a-strncasecmp.o)
 .comment       0x0000000000000074       0x75 /usr/bin/../lib/gcc/aarch64-elf/7.3.1/../../../../aarch64-elf/lib/libc.a(lib_a-strncpy.o)
 .comment       0x0000000000000074       0x75 /usr/bin/../lib/gcc/aarch64-elf/7.3.1/../../../../aarch64-elf/lib/libc.a(lib_a-strtod.o)
 .comment       0x0000000000000074       0x75 /usr/bin/../lib/gcc/aarch64-elf/7.3.1/../../../../aarch64-elf/lib/libc.a(lib_a-strtol.o)
 .comment       0x0000000000000074       0x75 /usr/bin/../lib/gcc/aarch64-elf/7.3.1/../../../../aarch64-elf/lib/libc.a(lib_a-strtold.o)
 .comment       0x0000000000000074       0x75 /usr/bin/../lib/gcc/aarch64-elf/7.3.1/../../../../aarch64-elf/lib/libc.a(lib_a-strtoll.o)
 .comment       0x0000000000000074       0x75 /usr/bin/../lib/gcc/aarch64-elf/7.3.1/../../../../aarch64-elf/lib/libc.a(lib_a-strtorx.o)
 .comment       0x0000000000000074       0x75 /usr/bin/../lib/gcc/aarch64-elf/7.3.1/../../../../aarch64-elf/lib/libc.a(lib_a-strtoul.o)
 .comment       0x0000000000000074       0x75 /usr/bin/../lib/gcc/aarch64-elf/7.3.1/../../../../aarch64-elf/lib/libc.a(lib_a-strtoull.o)
 .comment       0x0000000000000074       0x75 /usr/bin/../lib/gcc/aarch64-elf/7.3.1/../../../../aarch64-elf/lib/libc.a(lib_a-svfiprintf.o)
 .comment       0x0000000000000074       0x75 /usr/bin/../lib/gcc/aarch64-elf/7.3.1/../../../../aarch64-elf/lib/libc.a(lib_a-svfprintf.o)
 .comment       0x0000000000000074       0x75 /usr/bin/../lib/gcc/aarch64-elf/7.3.1/../../../../aarch64-elf/lib/libc.a(lib_a-ungetc.o)
 .comment       0x0000000000000074       0x75 /usr/bin/../lib/gcc/aarch64-elf/7.3.1/../../../../aarch64-elf/lib/libc.a(lib_a-vfiprintf.o)
 .comment       0x0000000000000074       0x75 /usr/bin/../lib/gcc/aarch64-elf/7.3.1/../../../../aarch64-elf/lib/libc.a(lib_a-wcsnrtombs.o)
 .comment       0x0000000000000074       0x75 /usr/bin/../lib/gcc/aarch64-elf/7.3.1/../../../../aarch64-elf/lib/libc.a(lib_a-wctomb_r.o)
 .comment       0x0000000000000074       0x75 /usr/bin/../lib/gcc/aarch64-elf/7.3.1/../../../../aarch64-elf/lib/libc.a(lib_a-callocr.o)
 .comment       0x0000000000000074       0x75 /usr/bin/../lib/gcc/aarch64-elf/7.3.1/../../../../aarch64-elf/lib/libc.a(lib_a-closer.o)
 .comment       0x0000000000000074       0x75 /usr/bin/../lib/gcc/aarch64-elf/7.3.1/../../../../aarch64-elf/lib/libc.a(lib_a-ctype_.o)
 .comment       0x0000000000000074       0x75 /usr/bin/../lib/gcc/aarch64-elf/7.3.1/../../../../aarch64-elf/lib/libc.a(lib_a-fclose.o)
 .comment       0x0000000000000074       0x75 /usr/bin/../lib/gcc/aarch64-elf/7.3.1/../../../../aarch64-elf/lib/libc.a(lib_a-fputwc.o)
 .comment       0x0000000000000074       0x75 /usr/bin/../lib/gcc/aarch64-elf/7.3.1/../../../../aarch64-elf/lib/libc.a(lib_a-fstatr.o)
 .comment       0x0000000000000074       0x75 /usr/bin/../lib/gcc/aarch64-elf/7.3.1/../../../../aarch64-elf/lib/libc.a(lib_a-gdtoa-gethex.o)
 .comment       0x0000000000000074       0x75 /usr/bin/../lib/gcc/aarch64-elf/7.3.1/../../../../aarch64-elf/lib/libc.a(lib_a-gdtoa-hexnan.o)
 .comment       0x0000000000000074       0x75 /usr/bin/../lib/gcc/aarch64-elf/7.3.1/../../../../aarch64-elf/lib/libc.a(lib_a-getenv_r.o)
 .comment       0x0000000000000074       0x75 /usr/bin/../lib/gcc/aarch64-elf/7.3.1/../../../../aarch64-elf/lib/libc.a(lib_a-isattyr.o)
 .comment       0x0000000000000074       0x75 /usr/bin/../lib/gcc/aarch64-elf/7.3.1/../../../../aarch64-elf/lib/libc.a(lib_a-lseekr.o)
 .comment       0x0000000000000074       0x75 /usr/bin/../lib/gcc/aarch64-elf/7.3.1/../../../../aarch64-elf/lib/libc.a(lib_a-readr.o)
 .comment       0x0000000000000074       0x75 /usr/bin/../lib/gcc/aarch64-elf/7.3.1/../../../../aarch64-elf/lib/libc.a(lib_a-strtodg.o)
 .comment       0x0000000000000074       0x75 /usr/bin/../lib/gcc/aarch64-elf/7.3.1/../../../../aarch64-elf/lib/libc.a(lib_a-wbuf.o)
 .comment       0x0000000000000074       0x75 /usr/bin/../lib/gcc/aarch64-elf/7.3.1/../../../../aarch64-elf/lib/libc.a(lib_a-environ.o)
 .comment       0x0000000000000074       0x75 /usr/bin/../lib/gcc/aarch64-elf/7.3.1/../../../../aarch64-elf/lib/libc.a(lib_a-envlock.o)
 .comment       0x0000000000000074       0x75 /usr/bin/../lib/gcc/aarch64-elf/7.3.1/../../../../aarch64-elf/lib/libc.a(lib_a-errno.o)
 .comment       0x0000000000000074       0x75 /usr/bin/../lib/gcc/aarch64-elf/7.3.1/../../../../aarch64-elf/lib/librdimon.a(rdimon-syscalls.o)
 .comment       0x0000000000000074       0x75 /usr/bin/../lib/gcc/aarch64-elf/7.3.1/../../../../aarch64-elf/lib/librdimon.a(rdimon-_exit.o)
 .comment       0x0000000000000074       0x75 /usr/bin/../lib/gcc/aarch64-elf/7.3.1/libgcc.a(eqtf2.o)
 .comment       0x0000000000000074       0x75 /usr/bin/../lib/gcc/aarch64-elf/7.3.1/libgcc.a(getf2.o)
 .comment       0x0000000000000074       0x75 /usr/bin/../lib/gcc/aarch64-elf/7.3.1/libgcc.a(letf2.o)
 .comment       0x0000000000000074       0x75 /usr/bin/../lib/gcc/aarch64-elf/7.3.1/libgcc.a(multf3.o)
 .comment       0x0000000000000074       0x75 /usr/bin/../lib/gcc/aarch64-elf/7.3.1/libgcc.a(subtf3.o)
 .comment       0x0000000000000074       0x75 /usr/bin/../lib/gcc/aarch64-elf/7.3.1/libgcc.a(fixtfsi.o)
 .comment       0x0000000000000074       0x75 /usr/bin/../lib/gcc/aarch64-elf/7.3.1/libgcc.a(floatsitf.o)
 .comment       0x0000000000000074       0x75 /usr/bin/../lib/gcc/aarch64-elf/7.3.1/libgcc.a(extenddftf2.o)
 .comment       0x0000000000000074       0x75 /usr/bin/../lib/gcc/aarch64-elf/7.3.1/libgcc.a(trunctfdf2.o)
 .comment       0x0000000000000074       0x75 /usr/bin/../lib/gcc/aarch64-elf/7.3.1/libgcc.a(sfp-exceptions.o)
 .comment       0x0000000000000074       0x75 /usr/bin/../lib/gcc/aarch64-elf/7.3.1/crtend.o

.debug
 *(.debug)

.line
 *(.line)

.debug_srcinfo
 *(.debug_srcinfo)

.debug_sfnames
 *(.debug_sfnames)

.debug_aranges  0x0000000000000000     0x1340
 *(.debug_aranges)
 .debug_aranges
                0x0000000000000000       0x30 /usr/bin/../lib/gcc/aarch64-elf/7.3.1/../../../../aarch64-elf/lib/crt0.o
 .debug_aranges
                0x0000000000000030       0x30 mysum.o
 .debug_aranges
                0x0000000000000060       0x30 /usr/bin/../lib/gcc/aarch64-elf/7.3.1/../../../../aarch64-elf/lib/cpu-init/rdimon-aem-el3.o
 .debug_aranges
                0x0000000000000090       0x30 /usr/bin/../lib/gcc/aarch64-elf/7.3.1/../../../../aarch64-elf/lib/libc.a(lib_a-atexit.o)
 .debug_aranges
                0x00000000000000c0       0x30 /usr/bin/../lib/gcc/aarch64-elf/7.3.1/../../../../aarch64-elf/lib/libc.a(lib_a-exit.o)
 .debug_aranges
                0x00000000000000f0       0x30 /usr/bin/../lib/gcc/aarch64-elf/7.3.1/../../../../aarch64-elf/lib/libc.a(lib_a-fini.o)
 .debug_aranges
                0x0000000000000120       0x20 /usr/bin/../lib/gcc/aarch64-elf/7.3.1/../../../../aarch64-elf/lib/libc.a(lib_a-impure.o)
 .debug_aranges
                0x0000000000000140       0x30 /usr/bin/../lib/gcc/aarch64-elf/7.3.1/../../../../aarch64-elf/lib/libc.a(lib_a-init.o)
 .debug_aranges
                0x0000000000000170       0x30 /usr/bin/../lib/gcc/aarch64-elf/7.3.1/../../../../aarch64-elf/lib/libc.a(lib_a-memset.o)
 .debug_aranges
                0x00000000000001a0       0x30 /usr/bin/../lib/gcc/aarch64-elf/7.3.1/../../../../aarch64-elf/lib/libc.a(lib_a-printf.o)
 .debug_aranges
                0x00000000000001d0       0x30 /usr/bin/../lib/gcc/aarch64-elf/7.3.1/../../../../aarch64-elf/lib/libc.a(lib_a-puts.o)
 .debug_aranges
                0x0000000000000200       0x30 /usr/bin/../lib/gcc/aarch64-elf/7.3.1/../../../../aarch64-elf/lib/libc.a(lib_a-scanf.o)
 .debug_aranges
                0x0000000000000230       0x30 /usr/bin/../lib/gcc/aarch64-elf/7.3.1/../../../../aarch64-elf/lib/libc.a(lib_a-strlen.o)
 .debug_aranges
                0x0000000000000260       0x30 /usr/bin/../lib/gcc/aarch64-elf/7.3.1/../../../../aarch64-elf/lib/libc.a(lib_a-syswrite.o)
 .debug_aranges
                0x0000000000000290       0x30 /usr/bin/../lib/gcc/aarch64-elf/7.3.1/../../../../aarch64-elf/lib/libc.a(lib_a-vfprintf.o)
 .debug_aranges
                0x00000000000002c0       0x30 /usr/bin/../lib/gcc/aarch64-elf/7.3.1/../../../../aarch64-elf/lib/libc.a(lib_a-vfscanf.o)
 .debug_aranges
                0x00000000000002f0       0x30 /usr/bin/../lib/gcc/aarch64-elf/7.3.1/../../../../aarch64-elf/lib/libc.a(lib_a-wcrtomb.o)
 .debug_aranges
                0x0000000000000320       0x30 /usr/bin/../lib/gcc/aarch64-elf/7.3.1/../../../../aarch64-elf/lib/libc.a(lib_a-wcsrtombs.o)
 .debug_aranges
                0x0000000000000350       0x30 /usr/bin/../lib/gcc/aarch64-elf/7.3.1/../../../../aarch64-elf/lib/libc.a(lib_a-writer.o)
 .debug_aranges
                0x0000000000000380       0x30 /usr/bin/../lib/gcc/aarch64-elf/7.3.1/../../../../aarch64-elf/lib/libc.a(lib_a-wsetup.o)
 .debug_aranges
                0x00000000000003b0       0x30 /usr/bin/../lib/gcc/aarch64-elf/7.3.1/../../../../aarch64-elf/lib/libc.a(lib_a-__atexit.o)
 .debug_aranges
                0x00000000000003e0       0x30 /usr/bin/../lib/gcc/aarch64-elf/7.3.1/../../../../aarch64-elf/lib/libc.a(lib_a-__call_atexit.o)
 .debug_aranges
                0x0000000000000410       0x30 /usr/bin/../lib/gcc/aarch64-elf/7.3.1/../../../../aarch64-elf/lib/libc.a(lib_a-fflush.o)
 .debug_aranges
                0x0000000000000440       0x30 /usr/bin/../lib/gcc/aarch64-elf/7.3.1/../../../../aarch64-elf/lib/libc.a(lib_a-findfp.o)
 .debug_aranges
                0x0000000000000470       0x30 /usr/bin/../lib/gcc/aarch64-elf/7.3.1/../../../../aarch64-elf/lib/libc.a(lib_a-fread.o)
 .debug_aranges
                0x00000000000004a0       0x30 /usr/bin/../lib/gcc/aarch64-elf/7.3.1/../../../../aarch64-elf/lib/libc.a(lib_a-freer.o)
 .debug_aranges
                0x00000000000004d0       0x30 /usr/bin/../lib/gcc/aarch64-elf/7.3.1/../../../../aarch64-elf/lib/libc.a(lib_a-fvwrite.o)
 .debug_aranges
                0x0000000000000500       0x30 /usr/bin/../lib/gcc/aarch64-elf/7.3.1/../../../../aarch64-elf/lib/libc.a(lib_a-fwalk.o)
 .debug_aranges
                0x0000000000000530       0x30 /usr/bin/../lib/gcc/aarch64-elf/7.3.1/../../../../aarch64-elf/lib/libc.a(lib_a-iswspace.o)
 .debug_aranges
                0x0000000000000560       0x30 /usr/bin/../lib/gcc/aarch64-elf/7.3.1/../../../../aarch64-elf/lib/libc.a(lib_a-jp2uc.o)
 .debug_aranges
                0x0000000000000590       0x30 /usr/bin/../lib/gcc/aarch64-elf/7.3.1/../../../../aarch64-elf/lib/libc.a(lib_a-ldtoa.o)
 .debug_aranges
                0x00000000000005c0       0x30 /usr/bin/../lib/gcc/aarch64-elf/7.3.1/../../../../aarch64-elf/lib/libc.a(lib_a-locale.o)
 .debug_aranges
                0x00000000000005f0       0x30 /usr/bin/../lib/gcc/aarch64-elf/7.3.1/../../../../aarch64-elf/lib/libc.a(lib_a-localeconv.o)
 .debug_aranges
                0x0000000000000620       0x30 /usr/bin/../lib/gcc/aarch64-elf/7.3.1/../../../../aarch64-elf/lib/libc.a(lib_a-makebuf.o)
 .debug_aranges
                0x0000000000000650       0x30 /usr/bin/../lib/gcc/aarch64-elf/7.3.1/../../../../aarch64-elf/lib/libc.a(lib_a-mallocr.o)
 .debug_aranges
                0x0000000000000680       0x30 /usr/bin/../lib/gcc/aarch64-elf/7.3.1/../../../../aarch64-elf/lib/libc.a(lib_a-mbrtowc.o)
 .debug_aranges
                0x00000000000006b0       0x30 /usr/bin/../lib/gcc/aarch64-elf/7.3.1/../../../../aarch64-elf/lib/libc.a(lib_a-mbtowc_r.o)
 .debug_aranges
                0x00000000000006e0       0x30 /usr/bin/../lib/gcc/aarch64-elf/7.3.1/../../../../aarch64-elf/lib/libc.a(lib_a-memchr.o)
 .debug_aranges
                0x0000000000000710       0x30 /usr/bin/../lib/gcc/aarch64-elf/7.3.1/../../../../aarch64-elf/lib/libc.a(lib_a-memcpy.o)
 .debug_aranges
                0x0000000000000740       0x30 /usr/bin/../lib/gcc/aarch64-elf/7.3.1/../../../../aarch64-elf/lib/libc.a(lib_a-memmove.o)
 .debug_aranges
                0x0000000000000770       0x30 /usr/bin/../lib/gcc/aarch64-elf/7.3.1/../../../../aarch64-elf/lib/libc.a(lib_a-mlock.o)
 .debug_aranges
                0x00000000000007a0       0x30 /usr/bin/../lib/gcc/aarch64-elf/7.3.1/../../../../aarch64-elf/lib/libc.a(lib_a-mprec.o)
 .debug_aranges
                0x00000000000007d0       0x30 /usr/bin/../lib/gcc/aarch64-elf/7.3.1/../../../../aarch64-elf/lib/libc.a(lib_a-reallocr.o)
 .debug_aranges
                0x0000000000000800       0x30 /usr/bin/../lib/gcc/aarch64-elf/7.3.1/../../../../aarch64-elf/lib/libc.a(lib_a-reent.o)
 .debug_aranges
                0x0000000000000830       0x30 /usr/bin/../lib/gcc/aarch64-elf/7.3.1/../../../../aarch64-elf/lib/libc.a(lib_a-refill.o)
 .debug_aranges
                0x0000000000000860       0x30 /usr/bin/../lib/gcc/aarch64-elf/7.3.1/../../../../aarch64-elf/lib/libc.a(lib_a-s_frexp.o)
 .debug_aranges
                0x0000000000000890       0x30 /usr/bin/../lib/gcc/aarch64-elf/7.3.1/../../../../aarch64-elf/lib/libc.a(lib_a-sbrkr.o)
 .debug_aranges
                0x00000000000008c0       0x30 /usr/bin/../lib/gcc/aarch64-elf/7.3.1/../../../../aarch64-elf/lib/libc.a(lib_a-sccl.o)
 .debug_aranges
                0x00000000000008f0       0x30 /usr/bin/../lib/gcc/aarch64-elf/7.3.1/../../../../aarch64-elf/lib/libc.a(lib_a-sf_nan.o)
 .debug_aranges
                0x0000000000000920       0x30 /usr/bin/../lib/gcc/aarch64-elf/7.3.1/../../../../aarch64-elf/lib/libc.a(lib_a-sprintf.o)
 .debug_aranges
                0x0000000000000950       0x30 /usr/bin/../lib/gcc/aarch64-elf/7.3.1/../../../../aarch64-elf/lib/libc.a(lib_a-stdio.o)
 .debug_aranges
                0x0000000000000980       0x30 /usr/bin/../lib/gcc/aarch64-elf/7.3.1/../../../../aarch64-elf/lib/libc.a(lib_a-stpncpy.o)
 .debug_aranges
                0x00000000000009b0       0x30 /usr/bin/../lib/gcc/aarch64-elf/7.3.1/../../../../aarch64-elf/lib/libc.a(lib_a-strcasecmp.o)
 .debug_aranges
                0x00000000000009e0       0x30 /usr/bin/../lib/gcc/aarch64-elf/7.3.1/../../../../aarch64-elf/lib/libc.a(lib_a-strcat.o)
 .debug_aranges
                0x0000000000000a10       0x30 /usr/bin/../lib/gcc/aarch64-elf/7.3.1/../../../../aarch64-elf/lib/libc.a(lib_a-strchr.o)
 .debug_aranges
                0x0000000000000a40       0x30 /usr/bin/../lib/gcc/aarch64-elf/7.3.1/../../../../aarch64-elf/lib/libc.a(lib_a-strcmp.o)
 .debug_aranges
                0x0000000000000a70       0x30 /usr/bin/../lib/gcc/aarch64-elf/7.3.1/../../../../aarch64-elf/lib/libc.a(lib_a-strcpy.o)
 .debug_aranges
                0x0000000000000aa0       0x30 /usr/bin/../lib/gcc/aarch64-elf/7.3.1/../../../../aarch64-elf/lib/libc.a(lib_a-strlcpy.o)
 .debug_aranges
                0x0000000000000ad0       0x30 /usr/bin/../lib/gcc/aarch64-elf/7.3.1/../../../../aarch64-elf/lib/libc.a(lib_a-strncasecmp.o)
 .debug_aranges
                0x0000000000000b00       0x30 /usr/bin/../lib/gcc/aarch64-elf/7.3.1/../../../../aarch64-elf/lib/libc.a(lib_a-strncmp.o)
 .debug_aranges
                0x0000000000000b30       0x30 /usr/bin/../lib/gcc/aarch64-elf/7.3.1/../../../../aarch64-elf/lib/libc.a(lib_a-strncpy.o)
 .debug_aranges
                0x0000000000000b60       0x40 /usr/bin/../lib/gcc/aarch64-elf/7.3.1/../../../../aarch64-elf/lib/libc.a(lib_a-strtod.o)
 .debug_aranges
                0x0000000000000ba0       0x30 /usr/bin/../lib/gcc/aarch64-elf/7.3.1/../../../../aarch64-elf/lib/libc.a(lib_a-strtol.o)
 .debug_aranges
                0x0000000000000bd0       0x30 /usr/bin/../lib/gcc/aarch64-elf/7.3.1/../../../../aarch64-elf/lib/libc.a(lib_a-strtold.o)
 .debug_aranges
                0x0000000000000c00       0x30 /usr/bin/../lib/gcc/aarch64-elf/7.3.1/../../../../aarch64-elf/lib/libc.a(lib_a-strtoll.o)
 .debug_aranges
                0x0000000000000c30       0x30 /usr/bin/../lib/gcc/aarch64-elf/7.3.1/../../../../aarch64-elf/lib/libc.a(lib_a-strtorx.o)
 .debug_aranges
                0x0000000000000c60       0x30 /usr/bin/../lib/gcc/aarch64-elf/7.3.1/../../../../aarch64-elf/lib/libc.a(lib_a-strtoul.o)
 .debug_aranges
                0x0000000000000c90       0x30 /usr/bin/../lib/gcc/aarch64-elf/7.3.1/../../../../aarch64-elf/lib/libc.a(lib_a-strtoull.o)
 .debug_aranges
                0x0000000000000cc0       0x30 /usr/bin/../lib/gcc/aarch64-elf/7.3.1/../../../../aarch64-elf/lib/libc.a(lib_a-svfiprintf.o)
 .debug_aranges
                0x0000000000000cf0       0x30 /usr/bin/../lib/gcc/aarch64-elf/7.3.1/../../../../aarch64-elf/lib/libc.a(lib_a-svfprintf.o)
 .debug_aranges
                0x0000000000000d20       0x30 /usr/bin/../lib/gcc/aarch64-elf/7.3.1/../../../../aarch64-elf/lib/libc.a(lib_a-ungetc.o)
 .debug_aranges
                0x0000000000000d50       0x30 /usr/bin/../lib/gcc/aarch64-elf/7.3.1/../../../../aarch64-elf/lib/libc.a(lib_a-vfiprintf.o)
 .debug_aranges
                0x0000000000000d80       0x30 /usr/bin/../lib/gcc/aarch64-elf/7.3.1/../../../../aarch64-elf/lib/libc.a(lib_a-wcsnrtombs.o)
 .debug_aranges
                0x0000000000000db0       0x30 /usr/bin/../lib/gcc/aarch64-elf/7.3.1/../../../../aarch64-elf/lib/libc.a(lib_a-wctomb_r.o)
 .debug_aranges
                0x0000000000000de0       0x30 /usr/bin/../lib/gcc/aarch64-elf/7.3.1/../../../../aarch64-elf/lib/libc.a(lib_a-callocr.o)
 .debug_aranges
                0x0000000000000e10       0x30 /usr/bin/../lib/gcc/aarch64-elf/7.3.1/../../../../aarch64-elf/lib/libc.a(lib_a-closer.o)
 .debug_aranges
                0x0000000000000e40       0x30 /usr/bin/../lib/gcc/aarch64-elf/7.3.1/../../../../aarch64-elf/lib/libc.a(lib_a-ctype_.o)
 .debug_aranges
                0x0000000000000e70       0x30 /usr/bin/../lib/gcc/aarch64-elf/7.3.1/../../../../aarch64-elf/lib/libc.a(lib_a-fclose.o)
 .debug_aranges
                0x0000000000000ea0       0x30 /usr/bin/../lib/gcc/aarch64-elf/7.3.1/../../../../aarch64-elf/lib/libc.a(lib_a-fputwc.o)
 .debug_aranges
                0x0000000000000ed0       0x30 /usr/bin/../lib/gcc/aarch64-elf/7.3.1/../../../../aarch64-elf/lib/libc.a(lib_a-fstatr.o)
 .debug_aranges
                0x0000000000000f00       0x30 /usr/bin/../lib/gcc/aarch64-elf/7.3.1/../../../../aarch64-elf/lib/libc.a(lib_a-gdtoa-gethex.o)
 .debug_aranges
                0x0000000000000f30       0x30 /usr/bin/../lib/gcc/aarch64-elf/7.3.1/../../../../aarch64-elf/lib/libc.a(lib_a-gdtoa-hexnan.o)
 .debug_aranges
                0x0000000000000f60       0x30 /usr/bin/../lib/gcc/aarch64-elf/7.3.1/../../../../aarch64-elf/lib/libc.a(lib_a-getenv_r.o)
 .debug_aranges
                0x0000000000000f90       0x30 /usr/bin/../lib/gcc/aarch64-elf/7.3.1/../../../../aarch64-elf/lib/libc.a(lib_a-isattyr.o)
 .debug_aranges
                0x0000000000000fc0       0x30 /usr/bin/../lib/gcc/aarch64-elf/7.3.1/../../../../aarch64-elf/lib/libc.a(lib_a-lseekr.o)
 .debug_aranges
                0x0000000000000ff0       0x30 /usr/bin/../lib/gcc/aarch64-elf/7.3.1/../../../../aarch64-elf/lib/libc.a(lib_a-readr.o)
 .debug_aranges
                0x0000000000001020       0x30 /usr/bin/../lib/gcc/aarch64-elf/7.3.1/../../../../aarch64-elf/lib/libc.a(lib_a-strtodg.o)
 .debug_aranges
                0x0000000000001050       0x30 /usr/bin/../lib/gcc/aarch64-elf/7.3.1/../../../../aarch64-elf/lib/libc.a(lib_a-wbuf.o)
 .debug_aranges
                0x0000000000001080       0x20 /usr/bin/../lib/gcc/aarch64-elf/7.3.1/../../../../aarch64-elf/lib/libc.a(lib_a-environ.o)
 .debug_aranges
                0x00000000000010a0       0x30 /usr/bin/../lib/gcc/aarch64-elf/7.3.1/../../../../aarch64-elf/lib/libc.a(lib_a-envlock.o)
 .debug_aranges
                0x00000000000010d0       0x30 /usr/bin/../lib/gcc/aarch64-elf/7.3.1/../../../../aarch64-elf/lib/libc.a(lib_a-errno.o)
 .debug_aranges
                0x0000000000001100       0x30 /usr/bin/../lib/gcc/aarch64-elf/7.3.1/../../../../aarch64-elf/lib/librdimon.a(rdimon-syscalls.o)
 .debug_aranges
                0x0000000000001130       0x30 /usr/bin/../lib/gcc/aarch64-elf/7.3.1/../../../../aarch64-elf/lib/librdimon.a(rdimon-_exit.o)
 .debug_aranges
                0x0000000000001160       0x30 /usr/bin/../lib/gcc/aarch64-elf/7.3.1/libgcc.a(eqtf2.o)
 .debug_aranges
                0x0000000000001190       0x30 /usr/bin/../lib/gcc/aarch64-elf/7.3.1/libgcc.a(getf2.o)
 .debug_aranges
                0x00000000000011c0       0x30 /usr/bin/../lib/gcc/aarch64-elf/7.3.1/libgcc.a(letf2.o)
 .debug_aranges
                0x00000000000011f0       0x30 /usr/bin/../lib/gcc/aarch64-elf/7.3.1/libgcc.a(multf3.o)
 .debug_aranges
                0x0000000000001220       0x30 /usr/bin/../lib/gcc/aarch64-elf/7.3.1/libgcc.a(subtf3.o)
 .debug_aranges
                0x0000000000001250       0x30 /usr/bin/../lib/gcc/aarch64-elf/7.3.1/libgcc.a(fixtfsi.o)
 .debug_aranges
                0x0000000000001280       0x30 /usr/bin/../lib/gcc/aarch64-elf/7.3.1/libgcc.a(floatsitf.o)
 .debug_aranges
                0x00000000000012b0       0x30 /usr/bin/../lib/gcc/aarch64-elf/7.3.1/libgcc.a(extenddftf2.o)
 .debug_aranges
                0x00000000000012e0       0x30 /usr/bin/../lib/gcc/aarch64-elf/7.3.1/libgcc.a(trunctfdf2.o)
 .debug_aranges
                0x0000000000001310       0x30 /usr/bin/../lib/gcc/aarch64-elf/7.3.1/libgcc.a(sfp-exceptions.o)

.debug_pubnames
 *(.debug_pubnames)

.debug_info     0x0000000000000000    0x54564
 *(.debug_info .gnu.linkonce.wi.*)
 .debug_info    0x0000000000000000      0x1d2 /usr/bin/../lib/gcc/aarch64-elf/7.3.1/../../../../aarch64-elf/lib/crt0.o
 .debug_info    0x00000000000001d2       0x7b mysum.o
 .debug_info    0x000000000000024d      0x1ee /usr/bin/../lib/gcc/aarch64-elf/7.3.1/../../../../aarch64-elf/lib/cpu-init/rdimon-aem-el3.o
 .debug_info    0x000000000000043b      0x924 /usr/bin/../lib/gcc/aarch64-elf/7.3.1/../../../../aarch64-elf/lib/libc.a(lib_a-atexit.o)
 .debug_info    0x0000000000000d5f      0x95d /usr/bin/../lib/gcc/aarch64-elf/7.3.1/../../../../aarch64-elf/lib/libc.a(lib_a-exit.o)
 .debug_info    0x00000000000016bc      0x100 /usr/bin/../lib/gcc/aarch64-elf/7.3.1/../../../../aarch64-elf/lib/libc.a(lib_a-fini.o)
 .debug_info    0x00000000000017bc      0x8b9 /usr/bin/../lib/gcc/aarch64-elf/7.3.1/../../../../aarch64-elf/lib/libc.a(lib_a-impure.o)
 .debug_info    0x0000000000002075      0x116 /usr/bin/../lib/gcc/aarch64-elf/7.3.1/../../../../aarch64-elf/lib/libc.a(lib_a-init.o)
 .debug_info    0x000000000000218b      0x1ea /usr/bin/../lib/gcc/aarch64-elf/7.3.1/../../../../aarch64-elf/lib/libc.a(lib_a-memset.o)
 .debug_info    0x0000000000002375      0xbd4 /usr/bin/../lib/gcc/aarch64-elf/7.3.1/../../../../aarch64-elf/lib/libc.a(lib_a-printf.o)
 .debug_info    0x0000000000002f49      0xc52 /usr/bin/../lib/gcc/aarch64-elf/7.3.1/../../../../aarch64-elf/lib/libc.a(lib_a-puts.o)
 .debug_info    0x0000000000003b9b      0xbd4 /usr/bin/../lib/gcc/aarch64-elf/7.3.1/../../../../aarch64-elf/lib/libc.a(lib_a-scanf.o)
 .debug_info    0x000000000000476f      0x1ea /usr/bin/../lib/gcc/aarch64-elf/7.3.1/../../../../aarch64-elf/lib/libc.a(lib_a-strlen.o)
 .debug_info    0x0000000000004959      0x96c /usr/bin/../lib/gcc/aarch64-elf/7.3.1/../../../../aarch64-elf/lib/libc.a(lib_a-syswrite.o)
 .debug_info    0x00000000000052c5     0x30cc /usr/bin/../lib/gcc/aarch64-elf/7.3.1/../../../../aarch64-elf/lib/libc.a(lib_a-vfprintf.o)
 .debug_info    0x0000000000008391     0x239c /usr/bin/../lib/gcc/aarch64-elf/7.3.1/../../../../aarch64-elf/lib/libc.a(lib_a-vfscanf.o)
 .debug_info    0x000000000000a72d     0x1027 /usr/bin/../lib/gcc/aarch64-elf/7.3.1/../../../../aarch64-elf/lib/libc.a(lib_a-wcrtomb.o)
 .debug_info    0x000000000000b754      0xa17 /usr/bin/../lib/gcc/aarch64-elf/7.3.1/../../../../aarch64-elf/lib/libc.a(lib_a-wcsrtombs.o)
 .debug_info    0x000000000000c16b      0x9b5 /usr/bin/../lib/gcc/aarch64-elf/7.3.1/../../../../aarch64-elf/lib/libc.a(lib_a-writer.o)
 .debug_info    0x000000000000cb20      0xb6d /usr/bin/../lib/gcc/aarch64-elf/7.3.1/../../../../aarch64-elf/lib/libc.a(lib_a-wsetup.o)
 .debug_info    0x000000000000d68d      0x96d /usr/bin/../lib/gcc/aarch64-elf/7.3.1/../../../../aarch64-elf/lib/libc.a(lib_a-__atexit.o)
 .debug_info    0x000000000000dffa      0x998 /usr/bin/../lib/gcc/aarch64-elf/7.3.1/../../../../aarch64-elf/lib/libc.a(lib_a-__call_atexit.o)
 .debug_info    0x000000000000e992      0xce0 /usr/bin/../lib/gcc/aarch64-elf/7.3.1/../../../../aarch64-elf/lib/libc.a(lib_a-fflush.o)
 .debug_info    0x000000000000f672     0x1058 /usr/bin/../lib/gcc/aarch64-elf/7.3.1/../../../../aarch64-elf/lib/libc.a(lib_a-findfp.o)
 .debug_info    0x00000000000106ca      0xd1e /usr/bin/../lib/gcc/aarch64-elf/7.3.1/../../../../aarch64-elf/lib/libc.a(lib_a-fread.o)
 .debug_info    0x00000000000113e8      0xd0a /usr/bin/../lib/gcc/aarch64-elf/7.3.1/../../../../aarch64-elf/lib/libc.a(lib_a-freer.o)
 .debug_info    0x00000000000120f2      0xe2f /usr/bin/../lib/gcc/aarch64-elf/7.3.1/../../../../aarch64-elf/lib/libc.a(lib_a-fvwrite.o)
 .debug_info    0x0000000000012f21      0xbf7 /usr/bin/../lib/gcc/aarch64-elf/7.3.1/../../../../aarch64-elf/lib/libc.a(lib_a-fwalk.o)
 .debug_info    0x0000000000013b18      0xe1d /usr/bin/../lib/gcc/aarch64-elf/7.3.1/../../../../aarch64-elf/lib/libc.a(lib_a-iswspace.o)
 .debug_info    0x0000000000014935     0x10ba /usr/bin/../lib/gcc/aarch64-elf/7.3.1/../../../../aarch64-elf/lib/libc.a(lib_a-jp2uc.o)
 .debug_info    0x00000000000159ef     0x4c5c /usr/bin/../lib/gcc/aarch64-elf/7.3.1/../../../../aarch64-elf/lib/libc.a(lib_a-ldtoa.o)
 .debug_info    0x000000000001a64b     0x1d2f /usr/bin/../lib/gcc/aarch64-elf/7.3.1/../../../../aarch64-elf/lib/libc.a(lib_a-locale.o)
 .debug_info    0x000000000001c37a      0xed4 /usr/bin/../lib/gcc/aarch64-elf/7.3.1/../../../../aarch64-elf/lib/libc.a(lib_a-localeconv.o)
 .debug_info    0x000000000001d24e      0xe0f /usr/bin/../lib/gcc/aarch64-elf/7.3.1/../../../../aarch64-elf/lib/libc.a(lib_a-makebuf.o)
 .debug_info    0x000000000001e05d      0xe5c /usr/bin/../lib/gcc/aarch64-elf/7.3.1/../../../../aarch64-elf/lib/libc.a(lib_a-mallocr.o)
 .debug_info    0x000000000001eeb9     0x103d /usr/bin/../lib/gcc/aarch64-elf/7.3.1/../../../../aarch64-elf/lib/libc.a(lib_a-mbrtowc.o)
 .debug_info    0x000000000001fef6     0x13a2 /usr/bin/../lib/gcc/aarch64-elf/7.3.1/../../../../aarch64-elf/lib/libc.a(lib_a-mbtowc_r.o)
 .debug_info    0x0000000000021298      0x1ea /usr/bin/../lib/gcc/aarch64-elf/7.3.1/../../../../aarch64-elf/lib/libc.a(lib_a-memchr.o)
 .debug_info    0x0000000000021482      0x1ea /usr/bin/../lib/gcc/aarch64-elf/7.3.1/../../../../aarch64-elf/lib/libc.a(lib_a-memcpy.o)
 .debug_info    0x000000000002166c      0x1eb /usr/bin/../lib/gcc/aarch64-elf/7.3.1/../../../../aarch64-elf/lib/libc.a(lib_a-memmove.o)
 .debug_info    0x0000000000021857      0x8f0 /usr/bin/../lib/gcc/aarch64-elf/7.3.1/../../../../aarch64-elf/lib/libc.a(lib_a-mlock.o)
 .debug_info    0x0000000000022147     0x1d7b /usr/bin/../lib/gcc/aarch64-elf/7.3.1/../../../../aarch64-elf/lib/libc.a(lib_a-mprec.o)
 .debug_info    0x0000000000023ec2      0xe20 /usr/bin/../lib/gcc/aarch64-elf/7.3.1/../../../../aarch64-elf/lib/libc.a(lib_a-reallocr.o)
 .debug_info    0x0000000000024ce2      0xa8d /usr/bin/../lib/gcc/aarch64-elf/7.3.1/../../../../aarch64-elf/lib/libc.a(lib_a-reent.o)
 .debug_info    0x000000000002576f      0xc67 /usr/bin/../lib/gcc/aarch64-elf/7.3.1/../../../../aarch64-elf/lib/libc.a(lib_a-refill.o)
 .debug_info    0x00000000000263d6      0xa13 /usr/bin/../lib/gcc/aarch64-elf/7.3.1/../../../../aarch64-elf/lib/libc.a(lib_a-s_frexp.o)
 .debug_info    0x0000000000026de9      0x976 /usr/bin/../lib/gcc/aarch64-elf/7.3.1/../../../../aarch64-elf/lib/libc.a(lib_a-sbrkr.o)
 .debug_info    0x000000000002775f      0xafb /usr/bin/../lib/gcc/aarch64-elf/7.3.1/../../../../aarch64-elf/lib/libc.a(lib_a-sccl.o)
 .debug_info    0x000000000002825a      0x917 /usr/bin/../lib/gcc/aarch64-elf/7.3.1/../../../../aarch64-elf/lib/libc.a(lib_a-sf_nan.o)
 .debug_info    0x0000000000028b71      0xc25 /usr/bin/../lib/gcc/aarch64-elf/7.3.1/../../../../aarch64-elf/lib/libc.a(lib_a-sprintf.o)
 .debug_info    0x0000000000029796      0xdb0 /usr/bin/../lib/gcc/aarch64-elf/7.3.1/../../../../aarch64-elf/lib/libc.a(lib_a-stdio.o)
 .debug_info    0x000000000002a546      0x938 /usr/bin/../lib/gcc/aarch64-elf/7.3.1/../../../../aarch64-elf/lib/libc.a(lib_a-stpncpy.o)
 .debug_info    0x000000000002ae7e      0x972 /usr/bin/../lib/gcc/aarch64-elf/7.3.1/../../../../aarch64-elf/lib/libc.a(lib_a-strcasecmp.o)
 .debug_info    0x000000000002b7f0      0x92e /usr/bin/../lib/gcc/aarch64-elf/7.3.1/../../../../aarch64-elf/lib/libc.a(lib_a-strcat.o)
 .debug_info    0x000000000002c11e      0x1ea /usr/bin/../lib/gcc/aarch64-elf/7.3.1/../../../../aarch64-elf/lib/libc.a(lib_a-strchr.o)
 .debug_info    0x000000000002c308      0x1ea /usr/bin/../lib/gcc/aarch64-elf/7.3.1/../../../../aarch64-elf/lib/libc.a(lib_a-strcmp.o)
 .debug_info    0x000000000002c4f2      0x1ea /usr/bin/../lib/gcc/aarch64-elf/7.3.1/../../../../aarch64-elf/lib/libc.a(lib_a-strcpy.o)
 .debug_info    0x000000000002c6dc      0x911 /usr/bin/../lib/gcc/aarch64-elf/7.3.1/../../../../aarch64-elf/lib/libc.a(lib_a-strlcpy.o)
 .debug_info    0x000000000002cfed      0x98a /usr/bin/../lib/gcc/aarch64-elf/7.3.1/../../../../aarch64-elf/lib/libc.a(lib_a-strncasecmp.o)
 .debug_info    0x000000000002d977      0x1eb /usr/bin/../lib/gcc/aarch64-elf/7.3.1/../../../../aarch64-elf/lib/libc.a(lib_a-strncmp.o)
 .debug_info    0x000000000002db62      0x945 /usr/bin/../lib/gcc/aarch64-elf/7.3.1/../../../../aarch64-elf/lib/libc.a(lib_a-strncpy.o)
 .debug_info    0x000000000002e4a7     0x1da4 /usr/bin/../lib/gcc/aarch64-elf/7.3.1/../../../../aarch64-elf/lib/libc.a(lib_a-strtod.o)
 .debug_info    0x000000000003024b     0x112c /usr/bin/../lib/gcc/aarch64-elf/7.3.1/../../../../aarch64-elf/lib/libc.a(lib_a-strtol.o)
 .debug_info    0x0000000000031377     0x10b9 /usr/bin/../lib/gcc/aarch64-elf/7.3.1/../../../../aarch64-elf/lib/libc.a(lib_a-strtold.o)
 .debug_info    0x0000000000032430     0x112e /usr/bin/../lib/gcc/aarch64-elf/7.3.1/../../../../aarch64-elf/lib/libc.a(lib_a-strtoll.o)
 .debug_info    0x000000000003355e     0x1131 /usr/bin/../lib/gcc/aarch64-elf/7.3.1/../../../../aarch64-elf/lib/libc.a(lib_a-strtorx.o)
 .debug_info    0x000000000003468f     0x112c /usr/bin/../lib/gcc/aarch64-elf/7.3.1/../../../../aarch64-elf/lib/libc.a(lib_a-strtoul.o)
 .debug_info    0x00000000000357bb     0x112e /usr/bin/../lib/gcc/aarch64-elf/7.3.1/../../../../aarch64-elf/lib/libc.a(lib_a-strtoull.o)
 .debug_info    0x00000000000368e9     0x27b8 /usr/bin/../lib/gcc/aarch64-elf/7.3.1/../../../../aarch64-elf/lib/libc.a(lib_a-svfiprintf.o)
 .debug_info    0x00000000000390a1     0x2ee7 /usr/bin/../lib/gcc/aarch64-elf/7.3.1/../../../../aarch64-elf/lib/libc.a(lib_a-svfprintf.o)
 .debug_info    0x000000000003bf88      0xcca /usr/bin/../lib/gcc/aarch64-elf/7.3.1/../../../../aarch64-elf/lib/libc.a(lib_a-ungetc.o)
 .debug_info    0x000000000003cc52     0x2c96 /usr/bin/../lib/gcc/aarch64-elf/7.3.1/../../../../aarch64-elf/lib/libc.a(lib_a-vfiprintf.o)
 .debug_info    0x000000000003f8e8     0x10f9 /usr/bin/../lib/gcc/aarch64-elf/7.3.1/../../../../aarch64-elf/lib/libc.a(lib_a-wcsnrtombs.o)
 .debug_info    0x00000000000409e1     0x1172 /usr/bin/../lib/gcc/aarch64-elf/7.3.1/../../../../aarch64-elf/lib/libc.a(lib_a-wctomb_r.o)
 .debug_info    0x0000000000041b53      0xb85 /usr/bin/../lib/gcc/aarch64-elf/7.3.1/../../../../aarch64-elf/lib/libc.a(lib_a-callocr.o)
 .debug_info    0x00000000000426d8      0x96c /usr/bin/../lib/gcc/aarch64-elf/7.3.1/../../../../aarch64-elf/lib/libc.a(lib_a-closer.o)
 .debug_info    0x0000000000043044      0xe29 /usr/bin/../lib/gcc/aarch64-elf/7.3.1/../../../../aarch64-elf/lib/libc.a(lib_a-ctype_.o)
 .debug_info    0x0000000000043e6d      0xc53 /usr/bin/../lib/gcc/aarch64-elf/7.3.1/../../../../aarch64-elf/lib/libc.a(lib_a-fclose.o)
 .debug_info    0x0000000000044ac0      0xd70 /usr/bin/../lib/gcc/aarch64-elf/7.3.1/../../../../aarch64-elf/lib/libc.a(lib_a-fputwc.o)
 .debug_info    0x0000000000045830      0xb7e /usr/bin/../lib/gcc/aarch64-elf/7.3.1/../../../../aarch64-elf/lib/libc.a(lib_a-fstatr.o)
 .debug_info    0x00000000000463ae     0x1566 /usr/bin/../lib/gcc/aarch64-elf/7.3.1/../../../../aarch64-elf/lib/libc.a(lib_a-gdtoa-gethex.o)
 .debug_info    0x0000000000047914     0x1141 /usr/bin/../lib/gcc/aarch64-elf/7.3.1/../../../../aarch64-elf/lib/libc.a(lib_a-gdtoa-hexnan.o)
 .debug_info    0x0000000000048a55      0xa34 /usr/bin/../lib/gcc/aarch64-elf/7.3.1/../../../../aarch64-elf/lib/libc.a(lib_a-getenv_r.o)
 .debug_info    0x0000000000049489      0x96c /usr/bin/../lib/gcc/aarch64-elf/7.3.1/../../../../aarch64-elf/lib/libc.a(lib_a-isattyr.o)
 .debug_info    0x0000000000049df5      0x998 /usr/bin/../lib/gcc/aarch64-elf/7.3.1/../../../../aarch64-elf/lib/libc.a(lib_a-lseekr.o)
 .debug_info    0x000000000004a78d      0x9ae /usr/bin/../lib/gcc/aarch64-elf/7.3.1/../../../../aarch64-elf/lib/libc.a(lib_a-readr.o)
 .debug_info    0x000000000004b13b     0x27b3 /usr/bin/../lib/gcc/aarch64-elf/7.3.1/../../../../aarch64-elf/lib/libc.a(lib_a-strtodg.o)
 .debug_info    0x000000000004d8ee      0xc05 /usr/bin/../lib/gcc/aarch64-elf/7.3.1/../../../../aarch64-elf/lib/libc.a(lib_a-wbuf.o)
 .debug_info    0x000000000004e4f3       0x72 /usr/bin/../lib/gcc/aarch64-elf/7.3.1/../../../../aarch64-elf/lib/libc.a(lib_a-environ.o)
 .debug_info    0x000000000004e565      0x8f0 /usr/bin/../lib/gcc/aarch64-elf/7.3.1/../../../../aarch64-elf/lib/libc.a(lib_a-envlock.o)
 .debug_info    0x000000000004ee55      0x8e4 /usr/bin/../lib/gcc/aarch64-elf/7.3.1/../../../../aarch64-elf/lib/libc.a(lib_a-errno.o)
 .debug_info    0x000000000004f739     0x2a4f /usr/bin/../lib/gcc/aarch64-elf/7.3.1/../../../../aarch64-elf/lib/librdimon.a(rdimon-syscalls.o)
 .debug_info    0x0000000000052188      0x15c /usr/bin/../lib/gcc/aarch64-elf/7.3.1/../../../../aarch64-elf/lib/librdimon.a(rdimon-_exit.o)
 .debug_info    0x00000000000522e4      0x2ec /usr/bin/../lib/gcc/aarch64-elf/7.3.1/libgcc.a(eqtf2.o)
 .debug_info    0x00000000000525d0      0x2d4 /usr/bin/../lib/gcc/aarch64-elf/7.3.1/libgcc.a(getf2.o)
 .debug_info    0x00000000000528a4      0x2d4 /usr/bin/../lib/gcc/aarch64-elf/7.3.1/libgcc.a(letf2.o)
 .debug_info    0x0000000000052b78      0x797 /usr/bin/../lib/gcc/aarch64-elf/7.3.1/libgcc.a(multf3.o)
 .debug_info    0x000000000005330f      0x622 /usr/bin/../lib/gcc/aarch64-elf/7.3.1/libgcc.a(subtf3.o)
 .debug_info    0x0000000000053931      0x27b /usr/bin/../lib/gcc/aarch64-elf/7.3.1/libgcc.a(fixtfsi.o)
 .debug_info    0x0000000000053bac      0x2d2 /usr/bin/../lib/gcc/aarch64-elf/7.3.1/libgcc.a(floatsitf.o)
 .debug_info    0x0000000000053e7e      0x2f0 /usr/bin/../lib/gcc/aarch64-elf/7.3.1/libgcc.a(extenddftf2.o)
 .debug_info    0x000000000005416e      0x318 /usr/bin/../lib/gcc/aarch64-elf/7.3.1/libgcc.a(trunctfdf2.o)
 .debug_info    0x0000000000054486       0xde /usr/bin/../lib/gcc/aarch64-elf/7.3.1/libgcc.a(sfp-exceptions.o)

.debug_abbrev   0x0000000000000000     0xdd39
 *(.debug_abbrev)
 .debug_abbrev  0x0000000000000000       0x14 /usr/bin/../lib/gcc/aarch64-elf/7.3.1/../../../../aarch64-elf/lib/crt0.o
 .debug_abbrev  0x0000000000000014       0x14 mysum.o
 .debug_abbrev  0x0000000000000028       0x14 /usr/bin/../lib/gcc/aarch64-elf/7.3.1/../../../../aarch64-elf/lib/cpu-init/rdimon-aem-el3.o
 .debug_abbrev  0x000000000000003c      0x20e /usr/bin/../lib/gcc/aarch64-elf/7.3.1/../../../../aarch64-elf/lib/libc.a(lib_a-atexit.o)
 .debug_abbrev  0x000000000000024a      0x1fd /usr/bin/../lib/gcc/aarch64-elf/7.3.1/../../../../aarch64-elf/lib/libc.a(lib_a-exit.o)
 .debug_abbrev  0x0000000000000447       0xbd /usr/bin/../lib/gcc/aarch64-elf/7.3.1/../../../../aarch64-elf/lib/libc.a(lib_a-fini.o)
 .debug_abbrev  0x0000000000000504      0x19f /usr/bin/../lib/gcc/aarch64-elf/7.3.1/../../../../aarch64-elf/lib/libc.a(lib_a-impure.o)
 .debug_abbrev  0x00000000000006a3       0xba /usr/bin/../lib/gcc/aarch64-elf/7.3.1/../../../../aarch64-elf/lib/libc.a(lib_a-init.o)
 .debug_abbrev  0x000000000000075d       0x14 /usr/bin/../lib/gcc/aarch64-elf/7.3.1/../../../../aarch64-elf/lib/libc.a(lib_a-memset.o)
 .debug_abbrev  0x0000000000000771      0x265 /usr/bin/../lib/gcc/aarch64-elf/7.3.1/../../../../aarch64-elf/lib/libc.a(lib_a-printf.o)
 .debug_abbrev  0x00000000000009d6      0x291 /usr/bin/../lib/gcc/aarch64-elf/7.3.1/../../../../aarch64-elf/lib/libc.a(lib_a-puts.o)
 .debug_abbrev  0x0000000000000c67      0x265 /usr/bin/../lib/gcc/aarch64-elf/7.3.1/../../../../aarch64-elf/lib/libc.a(lib_a-scanf.o)
 .debug_abbrev  0x0000000000000ecc       0x14 /usr/bin/../lib/gcc/aarch64-elf/7.3.1/../../../../aarch64-elf/lib/libc.a(lib_a-strlen.o)
 .debug_abbrev  0x0000000000000ee0      0x1f4 /usr/bin/../lib/gcc/aarch64-elf/7.3.1/../../../../aarch64-elf/lib/libc.a(lib_a-syswrite.o)
 .debug_abbrev  0x00000000000010d4      0x461 /usr/bin/../lib/gcc/aarch64-elf/7.3.1/../../../../aarch64-elf/lib/libc.a(lib_a-vfprintf.o)
 .debug_abbrev  0x0000000000001535      0x3d0 /usr/bin/../lib/gcc/aarch64-elf/7.3.1/../../../../aarch64-elf/lib/libc.a(lib_a-vfscanf.o)
 .debug_abbrev  0x0000000000001905      0x255 /usr/bin/../lib/gcc/aarch64-elf/7.3.1/../../../../aarch64-elf/lib/libc.a(lib_a-wcrtomb.o)
 .debug_abbrev  0x0000000000001b5a      0x1e8 /usr/bin/../lib/gcc/aarch64-elf/7.3.1/../../../../aarch64-elf/lib/libc.a(lib_a-wcsrtombs.o)
 .debug_abbrev  0x0000000000001d42      0x222 /usr/bin/../lib/gcc/aarch64-elf/7.3.1/../../../../aarch64-elf/lib/libc.a(lib_a-writer.o)
 .debug_abbrev  0x0000000000001f64      0x258 /usr/bin/../lib/gcc/aarch64-elf/7.3.1/../../../../aarch64-elf/lib/libc.a(lib_a-wsetup.o)
 .debug_abbrev  0x00000000000021bc      0x238 /usr/bin/../lib/gcc/aarch64-elf/7.3.1/../../../../aarch64-elf/lib/libc.a(lib_a-__atexit.o)
 .debug_abbrev  0x00000000000023f4      0x246 /usr/bin/../lib/gcc/aarch64-elf/7.3.1/../../../../aarch64-elf/lib/libc.a(lib_a-__call_atexit.o)
 .debug_abbrev  0x000000000000263a      0x2d3 /usr/bin/../lib/gcc/aarch64-elf/7.3.1/../../../../aarch64-elf/lib/libc.a(lib_a-fflush.o)
 .debug_abbrev  0x000000000000290d      0x3bf /usr/bin/../lib/gcc/aarch64-elf/7.3.1/../../../../aarch64-elf/lib/libc.a(lib_a-findfp.o)
 .debug_abbrev  0x0000000000002ccc      0x2cb /usr/bin/../lib/gcc/aarch64-elf/7.3.1/../../../../aarch64-elf/lib/libc.a(lib_a-fread.o)
 .debug_abbrev  0x0000000000002f97      0x29e /usr/bin/../lib/gcc/aarch64-elf/7.3.1/../../../../aarch64-elf/lib/libc.a(lib_a-freer.o)
 .debug_abbrev  0x0000000000003235      0x279 /usr/bin/../lib/gcc/aarch64-elf/7.3.1/../../../../aarch64-elf/lib/libc.a(lib_a-fvwrite.o)
 .debug_abbrev  0x00000000000034ae      0x222 /usr/bin/../lib/gcc/aarch64-elf/7.3.1/../../../../aarch64-elf/lib/libc.a(lib_a-fwalk.o)
 .debug_abbrev  0x00000000000036d0      0x1fa /usr/bin/../lib/gcc/aarch64-elf/7.3.1/../../../../aarch64-elf/lib/libc.a(lib_a-iswspace.o)
 .debug_abbrev  0x00000000000038ca      0x2d5 /usr/bin/../lib/gcc/aarch64-elf/7.3.1/../../../../aarch64-elf/lib/libc.a(lib_a-jp2uc.o)
 .debug_abbrev  0x0000000000003b9f      0x452 /usr/bin/../lib/gcc/aarch64-elf/7.3.1/../../../../aarch64-elf/lib/libc.a(lib_a-ldtoa.o)
 .debug_abbrev  0x0000000000003ff1      0x3c3 /usr/bin/../lib/gcc/aarch64-elf/7.3.1/../../../../aarch64-elf/lib/libc.a(lib_a-locale.o)
 .debug_abbrev  0x00000000000043b4      0x262 /usr/bin/../lib/gcc/aarch64-elf/7.3.1/../../../../aarch64-elf/lib/libc.a(lib_a-localeconv.o)
 .debug_abbrev  0x0000000000004616      0x2a4 /usr/bin/../lib/gcc/aarch64-elf/7.3.1/../../../../aarch64-elf/lib/libc.a(lib_a-makebuf.o)
 .debug_abbrev  0x00000000000048ba      0x2da /usr/bin/../lib/gcc/aarch64-elf/7.3.1/../../../../aarch64-elf/lib/libc.a(lib_a-mallocr.o)
 .debug_abbrev  0x0000000000004b94      0x246 /usr/bin/../lib/gcc/aarch64-elf/7.3.1/../../../../aarch64-elf/lib/libc.a(lib_a-mbrtowc.o)
 .debug_abbrev  0x0000000000004dda      0x321 /usr/bin/../lib/gcc/aarch64-elf/7.3.1/../../../../aarch64-elf/lib/libc.a(lib_a-mbtowc_r.o)
 .debug_abbrev  0x00000000000050fb       0x14 /usr/bin/../lib/gcc/aarch64-elf/7.3.1/../../../../aarch64-elf/lib/libc.a(lib_a-memchr.o)
 .debug_abbrev  0x000000000000510f       0x14 /usr/bin/../lib/gcc/aarch64-elf/7.3.1/../../../../aarch64-elf/lib/libc.a(lib_a-memcpy.o)
 .debug_abbrev  0x0000000000005123       0x14 /usr/bin/../lib/gcc/aarch64-elf/7.3.1/../../../../aarch64-elf/lib/libc.a(lib_a-memmove.o)
 .debug_abbrev  0x0000000000005137      0x1e0 /usr/bin/../lib/gcc/aarch64-elf/7.3.1/../../../../aarch64-elf/lib/libc.a(lib_a-mlock.o)
 .debug_abbrev  0x0000000000005317      0x3c3 /usr/bin/../lib/gcc/aarch64-elf/7.3.1/../../../../aarch64-elf/lib/libc.a(lib_a-mprec.o)
 .debug_abbrev  0x00000000000056da      0x26f /usr/bin/../lib/gcc/aarch64-elf/7.3.1/../../../../aarch64-elf/lib/libc.a(lib_a-reallocr.o)
 .debug_abbrev  0x0000000000005949      0x29e /usr/bin/../lib/gcc/aarch64-elf/7.3.1/../../../../aarch64-elf/lib/libc.a(lib_a-reent.o)
 .debug_abbrev  0x0000000000005be7      0x296 /usr/bin/../lib/gcc/aarch64-elf/7.3.1/../../../../aarch64-elf/lib/libc.a(lib_a-refill.o)
 .debug_abbrev  0x0000000000005e7d      0x25b /usr/bin/../lib/gcc/aarch64-elf/7.3.1/../../../../aarch64-elf/lib/libc.a(lib_a-s_frexp.o)
 .debug_abbrev  0x00000000000060d8      0x222 /usr/bin/../lib/gcc/aarch64-elf/7.3.1/../../../../aarch64-elf/lib/libc.a(lib_a-sbrkr.o)
 .debug_abbrev  0x00000000000062fa      0x206 /usr/bin/../lib/gcc/aarch64-elf/7.3.1/../../../../aarch64-elf/lib/libc.a(lib_a-sccl.o)
 .debug_abbrev  0x0000000000006500      0x1e8 /usr/bin/../lib/gcc/aarch64-elf/7.3.1/../../../../aarch64-elf/lib/libc.a(lib_a-sf_nan.o)
 .debug_abbrev  0x00000000000066e8      0x256 /usr/bin/../lib/gcc/aarch64-elf/7.3.1/../../../../aarch64-elf/lib/libc.a(lib_a-sprintf.o)
 .debug_abbrev  0x000000000000693e      0x278 /usr/bin/../lib/gcc/aarch64-elf/7.3.1/../../../../aarch64-elf/lib/libc.a(lib_a-stdio.o)
 .debug_abbrev  0x0000000000006bb6      0x1ea /usr/bin/../lib/gcc/aarch64-elf/7.3.1/../../../../aarch64-elf/lib/libc.a(lib_a-stpncpy.o)
 .debug_abbrev  0x0000000000006da0      0x214 /usr/bin/../lib/gcc/aarch64-elf/7.3.1/../../../../aarch64-elf/lib/libc.a(lib_a-strcasecmp.o)
 .debug_abbrev  0x0000000000006fb4      0x202 /usr/bin/../lib/gcc/aarch64-elf/7.3.1/../../../../aarch64-elf/lib/libc.a(lib_a-strcat.o)
 .debug_abbrev  0x00000000000071b6       0x14 /usr/bin/../lib/gcc/aarch64-elf/7.3.1/../../../../aarch64-elf/lib/libc.a(lib_a-strchr.o)
 .debug_abbrev  0x00000000000071ca       0x14 /usr/bin/../lib/gcc/aarch64-elf/7.3.1/../../../../aarch64-elf/lib/libc.a(lib_a-strcmp.o)
 .debug_abbrev  0x00000000000071de       0x14 /usr/bin/../lib/gcc/aarch64-elf/7.3.1/../../../../aarch64-elf/lib/libc.a(lib_a-strcpy.o)
 .debug_abbrev  0x00000000000071f2      0x1d2 /usr/bin/../lib/gcc/aarch64-elf/7.3.1/../../../../aarch64-elf/lib/libc.a(lib_a-strlcpy.o)
 .debug_abbrev  0x00000000000073c4      0x214 /usr/bin/../lib/gcc/aarch64-elf/7.3.1/../../../../aarch64-elf/lib/libc.a(lib_a-strncasecmp.o)
 .debug_abbrev  0x00000000000075d8       0x14 /usr/bin/../lib/gcc/aarch64-elf/7.3.1/../../../../aarch64-elf/lib/libc.a(lib_a-strncmp.o)
 .debug_abbrev  0x00000000000075ec      0x1ea /usr/bin/../lib/gcc/aarch64-elf/7.3.1/../../../../aarch64-elf/lib/libc.a(lib_a-strncpy.o)
 .debug_abbrev  0x00000000000077d6      0x3f6 /usr/bin/../lib/gcc/aarch64-elf/7.3.1/../../../../aarch64-elf/lib/libc.a(lib_a-strtod.o)
 .debug_abbrev  0x0000000000007bcc      0x2dc /usr/bin/../lib/gcc/aarch64-elf/7.3.1/../../../../aarch64-elf/lib/libc.a(lib_a-strtol.o)
 .debug_abbrev  0x0000000000007ea8      0x282 /usr/bin/../lib/gcc/aarch64-elf/7.3.1/../../../../aarch64-elf/lib/libc.a(lib_a-strtold.o)
 .debug_abbrev  0x000000000000812a      0x2f8 /usr/bin/../lib/gcc/aarch64-elf/7.3.1/../../../../aarch64-elf/lib/libc.a(lib_a-strtoll.o)
 .debug_abbrev  0x0000000000008422      0x2cb /usr/bin/../lib/gcc/aarch64-elf/7.3.1/../../../../aarch64-elf/lib/libc.a(lib_a-strtorx.o)
 .debug_abbrev  0x00000000000086ed      0x2dc /usr/bin/../lib/gcc/aarch64-elf/7.3.1/../../../../aarch64-elf/lib/libc.a(lib_a-strtoul.o)
 .debug_abbrev  0x00000000000089c9      0x2f8 /usr/bin/../lib/gcc/aarch64-elf/7.3.1/../../../../aarch64-elf/lib/libc.a(lib_a-strtoull.o)
 .debug_abbrev  0x0000000000008cc1      0x37e /usr/bin/../lib/gcc/aarch64-elf/7.3.1/../../../../aarch64-elf/lib/libc.a(lib_a-svfiprintf.o)
 .debug_abbrev  0x000000000000903f      0x43c /usr/bin/../lib/gcc/aarch64-elf/7.3.1/../../../../aarch64-elf/lib/libc.a(lib_a-svfprintf.o)
 .debug_abbrev  0x000000000000947b      0x30c /usr/bin/../lib/gcc/aarch64-elf/7.3.1/../../../../aarch64-elf/lib/libc.a(lib_a-ungetc.o)
 .debug_abbrev  0x0000000000009787      0x451 /usr/bin/../lib/gcc/aarch64-elf/7.3.1/../../../../aarch64-elf/lib/libc.a(lib_a-vfiprintf.o)
 .debug_abbrev  0x0000000000009bd8      0x25f /usr/bin/../lib/gcc/aarch64-elf/7.3.1/../../../../aarch64-elf/lib/libc.a(lib_a-wcsnrtombs.o)
 .debug_abbrev  0x0000000000009e37      0x28c /usr/bin/../lib/gcc/aarch64-elf/7.3.1/../../../../aarch64-elf/lib/libc.a(lib_a-wctomb_r.o)
 .debug_abbrev  0x000000000000a0c3      0x24d /usr/bin/../lib/gcc/aarch64-elf/7.3.1/../../../../aarch64-elf/lib/libc.a(lib_a-callocr.o)
 .debug_abbrev  0x000000000000a310      0x21d /usr/bin/../lib/gcc/aarch64-elf/7.3.1/../../../../aarch64-elf/lib/libc.a(lib_a-closer.o)
 .debug_abbrev  0x000000000000a52d      0x1f5 /usr/bin/../lib/gcc/aarch64-elf/7.3.1/../../../../aarch64-elf/lib/libc.a(lib_a-ctype_.o)
 .debug_abbrev  0x000000000000a722      0x2e6 /usr/bin/../lib/gcc/aarch64-elf/7.3.1/../../../../aarch64-elf/lib/libc.a(lib_a-fclose.o)
 .debug_abbrev  0x000000000000aa08      0x32a /usr/bin/../lib/gcc/aarch64-elf/7.3.1/../../../../aarch64-elf/lib/libc.a(lib_a-fputwc.o)
 .debug_abbrev  0x000000000000ad32      0x22c /usr/bin/../lib/gcc/aarch64-elf/7.3.1/../../../../aarch64-elf/lib/libc.a(lib_a-fstatr.o)
 .debug_abbrev  0x000000000000af5e      0x347 /usr/bin/../lib/gcc/aarch64-elf/7.3.1/../../../../aarch64-elf/lib/libc.a(lib_a-gdtoa-gethex.o)
 .debug_abbrev  0x000000000000b2a5      0x2d8 /usr/bin/../lib/gcc/aarch64-elf/7.3.1/../../../../aarch64-elf/lib/libc.a(lib_a-gdtoa-hexnan.o)
 .debug_abbrev  0x000000000000b57d      0x227 /usr/bin/../lib/gcc/aarch64-elf/7.3.1/../../../../aarch64-elf/lib/libc.a(lib_a-getenv_r.o)
 .debug_abbrev  0x000000000000b7a4      0x21d /usr/bin/../lib/gcc/aarch64-elf/7.3.1/../../../../aarch64-elf/lib/libc.a(lib_a-isattyr.o)
 .debug_abbrev  0x000000000000b9c1      0x22c /usr/bin/../lib/gcc/aarch64-elf/7.3.1/../../../../aarch64-elf/lib/libc.a(lib_a-lseekr.o)
 .debug_abbrev  0x000000000000bbed      0x21d /usr/bin/../lib/gcc/aarch64-elf/7.3.1/../../../../aarch64-elf/lib/libc.a(lib_a-readr.o)
 .debug_abbrev  0x000000000000be0a      0x46f /usr/bin/../lib/gcc/aarch64-elf/7.3.1/../../../../aarch64-elf/lib/libc.a(lib_a-strtodg.o)
 .debug_abbrev  0x000000000000c279      0x291 /usr/bin/../lib/gcc/aarch64-elf/7.3.1/../../../../aarch64-elf/lib/libc.a(lib_a-wbuf.o)
 .debug_abbrev  0x000000000000c50a       0x56 /usr/bin/../lib/gcc/aarch64-elf/7.3.1/../../../../aarch64-elf/lib/libc.a(lib_a-environ.o)
 .debug_abbrev  0x000000000000c560      0x1e4 /usr/bin/../lib/gcc/aarch64-elf/7.3.1/../../../../aarch64-elf/lib/libc.a(lib_a-envlock.o)
 .debug_abbrev  0x000000000000c744      0x1bb /usr/bin/../lib/gcc/aarch64-elf/7.3.1/../../../../aarch64-elf/lib/libc.a(lib_a-errno.o)
 .debug_abbrev  0x000000000000c8ff      0x50b /usr/bin/../lib/gcc/aarch64-elf/7.3.1/../../../../aarch64-elf/lib/librdimon.a(rdimon-syscalls.o)
 .debug_abbrev  0x000000000000ce0a      0x114 /usr/bin/../lib/gcc/aarch64-elf/7.3.1/../../../../aarch64-elf/lib/librdimon.a(rdimon-_exit.o)
 .debug_abbrev  0x000000000000cf1e      0x192 /usr/bin/../lib/gcc/aarch64-elf/7.3.1/libgcc.a(eqtf2.o)
 .debug_abbrev  0x000000000000d0b0      0x196 /usr/bin/../lib/gcc/aarch64-elf/7.3.1/libgcc.a(getf2.o)
 .debug_abbrev  0x000000000000d246      0x196 /usr/bin/../lib/gcc/aarch64-elf/7.3.1/libgcc.a(letf2.o)
 .debug_abbrev  0x000000000000d3dc      0x183 /usr/bin/../lib/gcc/aarch64-elf/7.3.1/libgcc.a(multf3.o)
 .debug_abbrev  0x000000000000d55f      0x199 /usr/bin/../lib/gcc/aarch64-elf/7.3.1/libgcc.a(subtf3.o)
 .debug_abbrev  0x000000000000d6f8      0x196 /usr/bin/../lib/gcc/aarch64-elf/7.3.1/libgcc.a(fixtfsi.o)
 .debug_abbrev  0x000000000000d88e      0x167 /usr/bin/../lib/gcc/aarch64-elf/7.3.1/libgcc.a(floatsitf.o)
 .debug_abbrev  0x000000000000d9f5      0x164 /usr/bin/../lib/gcc/aarch64-elf/7.3.1/libgcc.a(extenddftf2.o)
 .debug_abbrev  0x000000000000db59      0x16a /usr/bin/../lib/gcc/aarch64-elf/7.3.1/libgcc.a(trunctfdf2.o)
 .debug_abbrev  0x000000000000dcc3       0x76 /usr/bin/../lib/gcc/aarch64-elf/7.3.1/libgcc.a(sfp-exceptions.o)

.debug_line     0x0000000000000000    0x221c8
 *(.debug_line .debug_line.* .debug_line_end)
 .debug_line    0x0000000000000000      0x133 /usr/bin/../lib/gcc/aarch64-elf/7.3.1/../../../../aarch64-elf/lib/crt0.o
 .debug_line    0x0000000000000133       0x49 mysum.o
 .debug_line    0x000000000000017c      0x157 /usr/bin/../lib/gcc/aarch64-elf/7.3.1/../../../../aarch64-elf/lib/cpu-init/rdimon-aem-el3.o
 .debug_line    0x00000000000002d3      0x374 /usr/bin/../lib/gcc/aarch64-elf/7.3.1/../../../../aarch64-elf/lib/libc.a(lib_a-atexit.o)
 .debug_line    0x0000000000000647      0x386 /usr/bin/../lib/gcc/aarch64-elf/7.3.1/../../../../aarch64-elf/lib/libc.a(lib_a-exit.o)
 .debug_line    0x00000000000009cd      0x1ce /usr/bin/../lib/gcc/aarch64-elf/7.3.1/../../../../aarch64-elf/lib/libc.a(lib_a-fini.o)
 .debug_line    0x0000000000000b9b      0x28d /usr/bin/../lib/gcc/aarch64-elf/7.3.1/../../../../aarch64-elf/lib/libc.a(lib_a-impure.o)
 .debug_line    0x0000000000000e28      0x1ee /usr/bin/../lib/gcc/aarch64-elf/7.3.1/../../../../aarch64-elf/lib/libc.a(lib_a-init.o)
 .debug_line    0x0000000000001016      0x172 /usr/bin/../lib/gcc/aarch64-elf/7.3.1/../../../../aarch64-elf/lib/libc.a(lib_a-memset.o)
 .debug_line    0x0000000000001188      0x3cb /usr/bin/../lib/gcc/aarch64-elf/7.3.1/../../../../aarch64-elf/lib/libc.a(lib_a-printf.o)
 .debug_line    0x0000000000001553      0x3ce /usr/bin/../lib/gcc/aarch64-elf/7.3.1/../../../../aarch64-elf/lib/libc.a(lib_a-puts.o)
 .debug_line    0x0000000000001921      0x3d8 /usr/bin/../lib/gcc/aarch64-elf/7.3.1/../../../../aarch64-elf/lib/libc.a(lib_a-scanf.o)
 .debug_line    0x0000000000001cf9      0x152 /usr/bin/../lib/gcc/aarch64-elf/7.3.1/../../../../aarch64-elf/lib/libc.a(lib_a-strlen.o)
 .debug_line    0x0000000000001e4b      0x37c /usr/bin/../lib/gcc/aarch64-elf/7.3.1/../../../../aarch64-elf/lib/libc.a(lib_a-syswrite.o)
 .debug_line    0x00000000000021c7     0x2795 /usr/bin/../lib/gcc/aarch64-elf/7.3.1/../../../../aarch64-elf/lib/libc.a(lib_a-vfprintf.o)
 .debug_line    0x000000000000495c     0x10cf /usr/bin/../lib/gcc/aarch64-elf/7.3.1/../../../../aarch64-elf/lib/libc.a(lib_a-vfscanf.o)
 .debug_line    0x0000000000005a2b      0x4e4 /usr/bin/../lib/gcc/aarch64-elf/7.3.1/../../../../aarch64-elf/lib/libc.a(lib_a-wcrtomb.o)
 .debug_line    0x0000000000005f0f      0x36e /usr/bin/../lib/gcc/aarch64-elf/7.3.1/../../../../aarch64-elf/lib/libc.a(lib_a-wcsrtombs.o)
 .debug_line    0x000000000000627d      0x47b /usr/bin/../lib/gcc/aarch64-elf/7.3.1/../../../../aarch64-elf/lib/libc.a(lib_a-writer.o)
 .debug_line    0x00000000000066f8      0x405 /usr/bin/../lib/gcc/aarch64-elf/7.3.1/../../../../aarch64-elf/lib/libc.a(lib_a-wsetup.o)
 .debug_line    0x0000000000006afd      0x3ac /usr/bin/../lib/gcc/aarch64-elf/7.3.1/../../../../aarch64-elf/lib/libc.a(lib_a-__atexit.o)
 .debug_line    0x0000000000006ea9      0x3cf /usr/bin/../lib/gcc/aarch64-elf/7.3.1/../../../../aarch64-elf/lib/libc.a(lib_a-__call_atexit.o)
 .debug_line    0x0000000000007278      0x471 /usr/bin/../lib/gcc/aarch64-elf/7.3.1/../../../../aarch64-elf/lib/libc.a(lib_a-fflush.o)
 .debug_line    0x00000000000076e9      0x4d5 /usr/bin/../lib/gcc/aarch64-elf/7.3.1/../../../../aarch64-elf/lib/libc.a(lib_a-findfp.o)
 .debug_line    0x0000000000007bbe      0x42c /usr/bin/../lib/gcc/aarch64-elf/7.3.1/../../../../aarch64-elf/lib/libc.a(lib_a-fread.o)
 .debug_line    0x0000000000007fea      0x49b /usr/bin/../lib/gcc/aarch64-elf/7.3.1/../../../../aarch64-elf/lib/libc.a(lib_a-freer.o)
 .debug_line    0x0000000000008485      0x4ee /usr/bin/../lib/gcc/aarch64-elf/7.3.1/../../../../aarch64-elf/lib/libc.a(lib_a-fvwrite.o)
 .debug_line    0x0000000000008973      0x3e9 /usr/bin/../lib/gcc/aarch64-elf/7.3.1/../../../../aarch64-elf/lib/libc.a(lib_a-fwalk.o)
 .debug_line    0x0000000000008d5c      0x48c /usr/bin/../lib/gcc/aarch64-elf/7.3.1/../../../../aarch64-elf/lib/libc.a(lib_a-iswspace.o)
 .debug_line    0x00000000000091e8      0x531 /usr/bin/../lib/gcc/aarch64-elf/7.3.1/../../../../aarch64-elf/lib/libc.a(lib_a-jp2uc.o)
 .debug_line    0x0000000000009719      0xe07 /usr/bin/../lib/gcc/aarch64-elf/7.3.1/../../../../aarch64-elf/lib/libc.a(lib_a-ldtoa.o)
 .debug_line    0x000000000000a520      0x6c9 /usr/bin/../lib/gcc/aarch64-elf/7.3.1/../../../../aarch64-elf/lib/libc.a(lib_a-locale.o)
 .debug_line    0x000000000000abe9      0x3ac /usr/bin/../lib/gcc/aarch64-elf/7.3.1/../../../../aarch64-elf/lib/libc.a(lib_a-localeconv.o)
 .debug_line    0x000000000000af95      0x4fb /usr/bin/../lib/gcc/aarch64-elf/7.3.1/../../../../aarch64-elf/lib/libc.a(lib_a-makebuf.o)
 .debug_line    0x000000000000b490      0x594 /usr/bin/../lib/gcc/aarch64-elf/7.3.1/../../../../aarch64-elf/lib/libc.a(lib_a-mallocr.o)
 .debug_line    0x000000000000ba24      0x4e7 /usr/bin/../lib/gcc/aarch64-elf/7.3.1/../../../../aarch64-elf/lib/libc.a(lib_a-mbrtowc.o)
 .debug_line    0x000000000000bf0b      0x648 /usr/bin/../lib/gcc/aarch64-elf/7.3.1/../../../../aarch64-elf/lib/libc.a(lib_a-mbtowc_r.o)
 .debug_line    0x000000000000c553      0x134 /usr/bin/../lib/gcc/aarch64-elf/7.3.1/../../../../aarch64-elf/lib/libc.a(lib_a-memchr.o)
 .debug_line    0x000000000000c687      0x158 /usr/bin/../lib/gcc/aarch64-elf/7.3.1/../../../../aarch64-elf/lib/libc.a(lib_a-memcpy.o)
 .debug_line    0x000000000000c7df      0x12a /usr/bin/../lib/gcc/aarch64-elf/7.3.1/../../../../aarch64-elf/lib/libc.a(lib_a-memmove.o)
 .debug_line    0x000000000000c909      0x2a1 /usr/bin/../lib/gcc/aarch64-elf/7.3.1/../../../../aarch64-elf/lib/libc.a(lib_a-mlock.o)
 .debug_line    0x000000000000cbaa      0x975 /usr/bin/../lib/gcc/aarch64-elf/7.3.1/../../../../aarch64-elf/lib/libc.a(lib_a-mprec.o)
 .debug_line    0x000000000000d51f      0x40a /usr/bin/../lib/gcc/aarch64-elf/7.3.1/../../../../aarch64-elf/lib/libc.a(lib_a-reallocr.o)
 .debug_line    0x000000000000d929      0x3a1 /usr/bin/../lib/gcc/aarch64-elf/7.3.1/../../../../aarch64-elf/lib/libc.a(lib_a-reent.o)
 .debug_line    0x000000000000dcca      0x412 /usr/bin/../lib/gcc/aarch64-elf/7.3.1/../../../../aarch64-elf/lib/libc.a(lib_a-refill.o)
 .debug_line    0x000000000000e0dc      0x522 /usr/bin/../lib/gcc/aarch64-elf/7.3.1/../../../../aarch64-elf/lib/libc.a(lib_a-s_frexp.o)
 .debug_line    0x000000000000e5fe      0x37d /usr/bin/../lib/gcc/aarch64-elf/7.3.1/../../../../aarch64-elf/lib/libc.a(lib_a-sbrkr.o)
 .debug_line    0x000000000000e97b      0x3bf /usr/bin/../lib/gcc/aarch64-elf/7.3.1/../../../../aarch64-elf/lib/libc.a(lib_a-sccl.o)
 .debug_line    0x000000000000ed3a      0x366 /usr/bin/../lib/gcc/aarch64-elf/7.3.1/../../../../aarch64-elf/lib/libc.a(lib_a-sf_nan.o)
 .debug_line    0x000000000000f0a0      0x3f5 /usr/bin/../lib/gcc/aarch64-elf/7.3.1/../../../../aarch64-elf/lib/libc.a(lib_a-sprintf.o)
 .debug_line    0x000000000000f495      0x4d1 /usr/bin/../lib/gcc/aarch64-elf/7.3.1/../../../../aarch64-elf/lib/libc.a(lib_a-stdio.o)
 .debug_line    0x000000000000f966      0x39b /usr/bin/../lib/gcc/aarch64-elf/7.3.1/../../../../aarch64-elf/lib/libc.a(lib_a-stpncpy.o)
 .debug_line    0x000000000000fd01      0x394 /usr/bin/../lib/gcc/aarch64-elf/7.3.1/../../../../aarch64-elf/lib/libc.a(lib_a-strcasecmp.o)
 .debug_line    0x0000000000010095      0x378 /usr/bin/../lib/gcc/aarch64-elf/7.3.1/../../../../aarch64-elf/lib/libc.a(lib_a-strcat.o)
 .debug_line    0x000000000001040d      0x135 /usr/bin/../lib/gcc/aarch64-elf/7.3.1/../../../../aarch64-elf/lib/libc.a(lib_a-strchr.o)
 .debug_line    0x0000000000010542      0x129 /usr/bin/../lib/gcc/aarch64-elf/7.3.1/../../../../aarch64-elf/lib/libc.a(lib_a-strcmp.o)
 .debug_line    0x000000000001066b      0x167 /usr/bin/../lib/gcc/aarch64-elf/7.3.1/../../../../aarch64-elf/lib/libc.a(lib_a-strcpy.o)
 .debug_line    0x00000000000107d2      0x382 /usr/bin/../lib/gcc/aarch64-elf/7.3.1/../../../../aarch64-elf/lib/libc.a(lib_a-strlcpy.o)
 .debug_line    0x0000000000010b54      0x3a2 /usr/bin/../lib/gcc/aarch64-elf/7.3.1/../../../../aarch64-elf/lib/libc.a(lib_a-strncasecmp.o)
 .debug_line    0x0000000000010ef6      0x143 /usr/bin/../lib/gcc/aarch64-elf/7.3.1/../../../../aarch64-elf/lib/libc.a(lib_a-strncmp.o)
 .debug_line    0x0000000000011039      0x38d /usr/bin/../lib/gcc/aarch64-elf/7.3.1/../../../../aarch64-elf/lib/libc.a(lib_a-strncpy.o)
 .debug_line    0x00000000000113c6      0x9af /usr/bin/../lib/gcc/aarch64-elf/7.3.1/../../../../aarch64-elf/lib/libc.a(lib_a-strtod.o)
 .debug_line    0x0000000000011d75      0x4e3 /usr/bin/../lib/gcc/aarch64-elf/7.3.1/../../../../aarch64-elf/lib/libc.a(lib_a-strtol.o)
 .debug_line    0x0000000000012258      0x4d8 /usr/bin/../lib/gcc/aarch64-elf/7.3.1/../../../../aarch64-elf/lib/libc.a(lib_a-strtold.o)
 .debug_line    0x0000000000012730      0x4e4 /usr/bin/../lib/gcc/aarch64-elf/7.3.1/../../../../aarch64-elf/lib/libc.a(lib_a-strtoll.o)
 .debug_line    0x0000000000012c14      0x59b /usr/bin/../lib/gcc/aarch64-elf/7.3.1/../../../../aarch64-elf/lib/libc.a(lib_a-strtorx.o)
 .debug_line    0x00000000000131af      0x4da /usr/bin/../lib/gcc/aarch64-elf/7.3.1/../../../../aarch64-elf/lib/libc.a(lib_a-strtoul.o)
 .debug_line    0x0000000000013689      0x4db /usr/bin/../lib/gcc/aarch64-elf/7.3.1/../../../../aarch64-elf/lib/libc.a(lib_a-strtoull.o)
 .debug_line    0x0000000000013b64     0x2198 /usr/bin/../lib/gcc/aarch64-elf/7.3.1/../../../../aarch64-elf/lib/libc.a(lib_a-svfiprintf.o)
 .debug_line    0x0000000000015cfc     0x2643 /usr/bin/../lib/gcc/aarch64-elf/7.3.1/../../../../aarch64-elf/lib/libc.a(lib_a-svfprintf.o)
 .debug_line    0x000000000001833f      0x439 /usr/bin/../lib/gcc/aarch64-elf/7.3.1/../../../../aarch64-elf/lib/libc.a(lib_a-ungetc.o)
 .debug_line    0x0000000000018778     0x2220 /usr/bin/../lib/gcc/aarch64-elf/7.3.1/../../../../aarch64-elf/lib/libc.a(lib_a-vfiprintf.o)
 .debug_line    0x000000000001a998      0x501 /usr/bin/../lib/gcc/aarch64-elf/7.3.1/../../../../aarch64-elf/lib/libc.a(lib_a-wcsnrtombs.o)
 .debug_line    0x000000000001ae99      0x544 /usr/bin/../lib/gcc/aarch64-elf/7.3.1/../../../../aarch64-elf/lib/libc.a(lib_a-wctomb_r.o)
 .debug_line    0x000000000001b3dd      0x2f0 /usr/bin/../lib/gcc/aarch64-elf/7.3.1/../../../../aarch64-elf/lib/libc.a(lib_a-callocr.o)
 .debug_line    0x000000000001b6cd      0x37e /usr/bin/../lib/gcc/aarch64-elf/7.3.1/../../../../aarch64-elf/lib/libc.a(lib_a-closer.o)
 .debug_line    0x000000000001ba4b      0x45e /usr/bin/../lib/gcc/aarch64-elf/7.3.1/../../../../aarch64-elf/lib/libc.a(lib_a-ctype_.o)
 .debug_line    0x000000000001bea9      0x3c2 /usr/bin/../lib/gcc/aarch64-elf/7.3.1/../../../../aarch64-elf/lib/libc.a(lib_a-fclose.o)
 .debug_line    0x000000000001c26b      0x412 /usr/bin/../lib/gcc/aarch64-elf/7.3.1/../../../../aarch64-elf/lib/libc.a(lib_a-fputwc.o)
 .debug_line    0x000000000001c67d      0x483 /usr/bin/../lib/gcc/aarch64-elf/7.3.1/../../../../aarch64-elf/lib/libc.a(lib_a-fstatr.o)
 .debug_line    0x000000000001cb00      0x6fe /usr/bin/../lib/gcc/aarch64-elf/7.3.1/../../../../aarch64-elf/lib/libc.a(lib_a-gdtoa-gethex.o)
 .debug_line    0x000000000001d1fe      0x512 /usr/bin/../lib/gcc/aarch64-elf/7.3.1/../../../../aarch64-elf/lib/libc.a(lib_a-gdtoa-hexnan.o)
 .debug_line    0x000000000001d710      0x3b4 /usr/bin/../lib/gcc/aarch64-elf/7.3.1/../../../../aarch64-elf/lib/libc.a(lib_a-getenv_r.o)
 .debug_line    0x000000000001dac4      0x37f /usr/bin/../lib/gcc/aarch64-elf/7.3.1/../../../../aarch64-elf/lib/libc.a(lib_a-isattyr.o)
 .debug_line    0x000000000001de43      0x380 /usr/bin/../lib/gcc/aarch64-elf/7.3.1/../../../../aarch64-elf/lib/libc.a(lib_a-lseekr.o)
 .debug_line    0x000000000001e1c3      0x47a /usr/bin/../lib/gcc/aarch64-elf/7.3.1/../../../../aarch64-elf/lib/libc.a(lib_a-readr.o)
 .debug_line    0x000000000001e63d      0xbf9 /usr/bin/../lib/gcc/aarch64-elf/7.3.1/../../../../aarch64-elf/lib/libc.a(lib_a-strtodg.o)
 .debug_line    0x000000000001f236      0x400 /usr/bin/../lib/gcc/aarch64-elf/7.3.1/../../../../aarch64-elf/lib/libc.a(lib_a-wbuf.o)
 .debug_line    0x000000000001f636       0xe3 /usr/bin/../lib/gcc/aarch64-elf/7.3.1/../../../../aarch64-elf/lib/libc.a(lib_a-environ.o)
 .debug_line    0x000000000001f719      0x36a /usr/bin/../lib/gcc/aarch64-elf/7.3.1/../../../../aarch64-elf/lib/libc.a(lib_a-envlock.o)
 .debug_line    0x000000000001fa83      0x2ac /usr/bin/../lib/gcc/aarch64-elf/7.3.1/../../../../aarch64-elf/lib/libc.a(lib_a-errno.o)
 .debug_line    0x000000000001fd2f      0x9ef /usr/bin/../lib/gcc/aarch64-elf/7.3.1/../../../../aarch64-elf/lib/librdimon.a(rdimon-syscalls.o)
 .debug_line    0x000000000002071e      0x11e /usr/bin/../lib/gcc/aarch64-elf/7.3.1/../../../../aarch64-elf/lib/librdimon.a(rdimon-_exit.o)
 .debug_line    0x000000000002083c      0x228 /usr/bin/../lib/gcc/aarch64-elf/7.3.1/libgcc.a(eqtf2.o)
 .debug_line    0x0000000000020a64      0x241 /usr/bin/../lib/gcc/aarch64-elf/7.3.1/libgcc.a(getf2.o)
 .debug_line    0x0000000000020ca5      0x242 /usr/bin/../lib/gcc/aarch64-elf/7.3.1/libgcc.a(letf2.o)
 .debug_line    0x0000000000020ee7      0x31d /usr/bin/../lib/gcc/aarch64-elf/7.3.1/libgcc.a(multf3.o)
 .debug_line    0x0000000000021204      0x5f4 /usr/bin/../lib/gcc/aarch64-elf/7.3.1/libgcc.a(subtf3.o)
 .debug_line    0x00000000000217f8      0x1fa /usr/bin/../lib/gcc/aarch64-elf/7.3.1/libgcc.a(fixtfsi.o)
 .debug_line    0x00000000000219f2      0x1cd /usr/bin/../lib/gcc/aarch64-elf/7.3.1/libgcc.a(floatsitf.o)
 .debug_line    0x0000000000021bbf      0x248 /usr/bin/../lib/gcc/aarch64-elf/7.3.1/libgcc.a(extenddftf2.o)
 .debug_line    0x0000000000021e07      0x2c2 /usr/bin/../lib/gcc/aarch64-elf/7.3.1/libgcc.a(trunctfdf2.o)
 .debug_line    0x00000000000220c9       0xff /usr/bin/../lib/gcc/aarch64-elf/7.3.1/libgcc.a(sfp-exceptions.o)

.debug_frame    0x0000000000000000     0x42c0
 *(.debug_frame)
 .debug_frame   0x0000000000000000       0x28 /usr/bin/../lib/gcc/aarch64-elf/7.3.1/../../../../aarch64-elf/lib/libc.a(lib_a-atexit.o)
 .debug_frame   0x0000000000000028       0x38 /usr/bin/../lib/gcc/aarch64-elf/7.3.1/../../../../aarch64-elf/lib/libc.a(lib_a-exit.o)
 .debug_frame   0x0000000000000060       0x40 /usr/bin/../lib/gcc/aarch64-elf/7.3.1/../../../../aarch64-elf/lib/libc.a(lib_a-fini.o)
 .debug_frame   0x00000000000000a0       0x48 /usr/bin/../lib/gcc/aarch64-elf/7.3.1/../../../../aarch64-elf/lib/libc.a(lib_a-init.o)
 .debug_frame   0x00000000000000e8       0x70 /usr/bin/../lib/gcc/aarch64-elf/7.3.1/../../../../aarch64-elf/lib/libc.a(lib_a-printf.o)
 .debug_frame   0x0000000000000158       0x60 /usr/bin/../lib/gcc/aarch64-elf/7.3.1/../../../../aarch64-elf/lib/libc.a(lib_a-puts.o)
 .debug_frame   0x00000000000001b8       0x70 /usr/bin/../lib/gcc/aarch64-elf/7.3.1/../../../../aarch64-elf/lib/libc.a(lib_a-scanf.o)
 .debug_frame   0x0000000000000228       0x38 /usr/bin/../lib/gcc/aarch64-elf/7.3.1/../../../../aarch64-elf/lib/libc.a(lib_a-syswrite.o)
 .debug_frame   0x0000000000000260      0x1d0 /usr/bin/../lib/gcc/aarch64-elf/7.3.1/../../../../aarch64-elf/lib/libc.a(lib_a-vfprintf.o)
 .debug_frame   0x0000000000000430      0x110 /usr/bin/../lib/gcc/aarch64-elf/7.3.1/../../../../aarch64-elf/lib/libc.a(lib_a-vfscanf.o)
 .debug_frame   0x0000000000000540       0x90 /usr/bin/../lib/gcc/aarch64-elf/7.3.1/../../../../aarch64-elf/lib/libc.a(lib_a-wcrtomb.o)
 .debug_frame   0x00000000000005d0       0x40 /usr/bin/../lib/gcc/aarch64-elf/7.3.1/../../../../aarch64-elf/lib/libc.a(lib_a-wcsrtombs.o)
 .debug_frame   0x0000000000000610       0x50 /usr/bin/../lib/gcc/aarch64-elf/7.3.1/../../../../aarch64-elf/lib/libc.a(lib_a-writer.o)
 .debug_frame   0x0000000000000660       0x48 /usr/bin/../lib/gcc/aarch64-elf/7.3.1/../../../../aarch64-elf/lib/libc.a(lib_a-wsetup.o)
 .debug_frame   0x00000000000006a8       0x50 /usr/bin/../lib/gcc/aarch64-elf/7.3.1/../../../../aarch64-elf/lib/libc.a(lib_a-__atexit.o)
 .debug_frame   0x00000000000006f8       0x60 /usr/bin/../lib/gcc/aarch64-elf/7.3.1/../../../../aarch64-elf/lib/libc.a(lib_a-__call_atexit.o)
 .debug_frame   0x0000000000000758      0x100 /usr/bin/../lib/gcc/aarch64-elf/7.3.1/../../../../aarch64-elf/lib/libc.a(lib_a-fflush.o)
 .debug_frame   0x0000000000000858      0x1d0 /usr/bin/../lib/gcc/aarch64-elf/7.3.1/../../../../aarch64-elf/lib/libc.a(lib_a-findfp.o)
 .debug_frame   0x0000000000000a28       0xb8 /usr/bin/../lib/gcc/aarch64-elf/7.3.1/../../../../aarch64-elf/lib/libc.a(lib_a-fread.o)
 .debug_frame   0x0000000000000ae0       0xb0 /usr/bin/../lib/gcc/aarch64-elf/7.3.1/../../../../aarch64-elf/lib/libc.a(lib_a-freer.o)
 .debug_frame   0x0000000000000b90       0xf0 /usr/bin/../lib/gcc/aarch64-elf/7.3.1/../../../../aarch64-elf/lib/libc.a(lib_a-fvwrite.o)
 .debug_frame   0x0000000000000c80       0xc0 /usr/bin/../lib/gcc/aarch64-elf/7.3.1/../../../../aarch64-elf/lib/libc.a(lib_a-fwalk.o)
 .debug_frame   0x0000000000000d40       0x38 /usr/bin/../lib/gcc/aarch64-elf/7.3.1/../../../../aarch64-elf/lib/libc.a(lib_a-iswspace.o)
 .debug_frame   0x0000000000000d78       0x68 /usr/bin/../lib/gcc/aarch64-elf/7.3.1/../../../../aarch64-elf/lib/libc.a(lib_a-jp2uc.o)
 .debug_frame   0x0000000000000de0      0x4b0 /usr/bin/../lib/gcc/aarch64-elf/7.3.1/../../../../aarch64-elf/lib/libc.a(lib_a-ldtoa.o)
 .debug_frame   0x0000000000001290      0x2c8 /usr/bin/../lib/gcc/aarch64-elf/7.3.1/../../../../aarch64-elf/lib/libc.a(lib_a-locale.o)
 .debug_frame   0x0000000000001558       0x58 /usr/bin/../lib/gcc/aarch64-elf/7.3.1/../../../../aarch64-elf/lib/libc.a(lib_a-localeconv.o)
 .debug_frame   0x00000000000015b0       0xb0 /usr/bin/../lib/gcc/aarch64-elf/7.3.1/../../../../aarch64-elf/lib/libc.a(lib_a-makebuf.o)
 .debug_frame   0x0000000000001660      0x100 /usr/bin/../lib/gcc/aarch64-elf/7.3.1/../../../../aarch64-elf/lib/libc.a(lib_a-mallocr.o)
 .debug_frame   0x0000000000001760       0x90 /usr/bin/../lib/gcc/aarch64-elf/7.3.1/../../../../aarch64-elf/lib/libc.a(lib_a-mbrtowc.o)
 .debug_frame   0x00000000000017f0      0x128 /usr/bin/../lib/gcc/aarch64-elf/7.3.1/../../../../aarch64-elf/lib/libc.a(lib_a-mbtowc_r.o)
 .debug_frame   0x0000000000001918       0x40 /usr/bin/../lib/gcc/aarch64-elf/7.3.1/../../../../aarch64-elf/lib/libc.a(lib_a-mlock.o)
 .debug_frame   0x0000000000001958      0x3b0 /usr/bin/../lib/gcc/aarch64-elf/7.3.1/../../../../aarch64-elf/lib/libc.a(lib_a-mprec.o)
 .debug_frame   0x0000000000001d08       0xd0 /usr/bin/../lib/gcc/aarch64-elf/7.3.1/../../../../aarch64-elf/lib/libc.a(lib_a-reallocr.o)
 .debug_frame   0x0000000000001dd8       0x90 /usr/bin/../lib/gcc/aarch64-elf/7.3.1/../../../../aarch64-elf/lib/libc.a(lib_a-reent.o)
 .debug_frame   0x0000000000001e68       0xa8 /usr/bin/../lib/gcc/aarch64-elf/7.3.1/../../../../aarch64-elf/lib/libc.a(lib_a-refill.o)
 .debug_frame   0x0000000000001f10       0x28 /usr/bin/../lib/gcc/aarch64-elf/7.3.1/../../../../aarch64-elf/lib/libc.a(lib_a-s_frexp.o)
 .debug_frame   0x0000000000001f38       0x50 /usr/bin/../lib/gcc/aarch64-elf/7.3.1/../../../../aarch64-elf/lib/libc.a(lib_a-sbrkr.o)
 .debug_frame   0x0000000000001f88       0x28 /usr/bin/../lib/gcc/aarch64-elf/7.3.1/../../../../aarch64-elf/lib/libc.a(lib_a-sccl.o)
 .debug_frame   0x0000000000001fb0       0x28 /usr/bin/../lib/gcc/aarch64-elf/7.3.1/../../../../aarch64-elf/lib/libc.a(lib_a-sf_nan.o)
 .debug_frame   0x0000000000001fd8       0x70 /usr/bin/../lib/gcc/aarch64-elf/7.3.1/../../../../aarch64-elf/lib/libc.a(lib_a-sprintf.o)
 .debug_frame   0x0000000000002048       0xe8 /usr/bin/../lib/gcc/aarch64-elf/7.3.1/../../../../aarch64-elf/lib/libc.a(lib_a-stdio.o)
 .debug_frame   0x0000000000002130       0x28 /usr/bin/../lib/gcc/aarch64-elf/7.3.1/../../../../aarch64-elf/lib/libc.a(lib_a-stpncpy.o)
 .debug_frame   0x0000000000002158       0x60 /usr/bin/../lib/gcc/aarch64-elf/7.3.1/../../../../aarch64-elf/lib/libc.a(lib_a-strcasecmp.o)
 .debug_frame   0x00000000000021b8       0x40 /usr/bin/../lib/gcc/aarch64-elf/7.3.1/../../../../aarch64-elf/lib/libc.a(lib_a-strcat.o)
 .debug_frame   0x00000000000021f8       0x28 /usr/bin/../lib/gcc/aarch64-elf/7.3.1/../../../../aarch64-elf/lib/libc.a(lib_a-strlcpy.o)
 .debug_frame   0x0000000000002220       0x60 /usr/bin/../lib/gcc/aarch64-elf/7.3.1/../../../../aarch64-elf/lib/libc.a(lib_a-strncasecmp.o)
 .debug_frame   0x0000000000002280       0x28 /usr/bin/../lib/gcc/aarch64-elf/7.3.1/../../../../aarch64-elf/lib/libc.a(lib_a-strncpy.o)
 .debug_frame   0x00000000000022a8      0x2a0 /usr/bin/../lib/gcc/aarch64-elf/7.3.1/../../../../aarch64-elf/lib/libc.a(lib_a-strtod.o)
 .debug_frame   0x0000000000002548       0xa0 /usr/bin/../lib/gcc/aarch64-elf/7.3.1/../../../../aarch64-elf/lib/libc.a(lib_a-strtol.o)
 .debug_frame   0x00000000000025e8       0x88 /usr/bin/../lib/gcc/aarch64-elf/7.3.1/../../../../aarch64-elf/lib/libc.a(lib_a-strtold.o)
 .debug_frame   0x0000000000002670       0xa0 /usr/bin/../lib/gcc/aarch64-elf/7.3.1/../../../../aarch64-elf/lib/libc.a(lib_a-strtoll.o)
 .debug_frame   0x0000000000002710       0x58 /usr/bin/../lib/gcc/aarch64-elf/7.3.1/../../../../aarch64-elf/lib/libc.a(lib_a-strtorx.o)
 .debug_frame   0x0000000000002768       0xa0 /usr/bin/../lib/gcc/aarch64-elf/7.3.1/../../../../aarch64-elf/lib/libc.a(lib_a-strtoul.o)
 .debug_frame   0x0000000000002808       0xa0 /usr/bin/../lib/gcc/aarch64-elf/7.3.1/../../../../aarch64-elf/lib/libc.a(lib_a-strtoull.o)
 .debug_frame   0x00000000000028a8      0x1b8 /usr/bin/../lib/gcc/aarch64-elf/7.3.1/../../../../aarch64-elf/lib/libc.a(lib_a-svfiprintf.o)
 .debug_frame   0x0000000000002a60      0x130 /usr/bin/../lib/gcc/aarch64-elf/7.3.1/../../../../aarch64-elf/lib/libc.a(lib_a-svfprintf.o)
 .debug_frame   0x0000000000002b90      0x108 /usr/bin/../lib/gcc/aarch64-elf/7.3.1/../../../../aarch64-elf/lib/libc.a(lib_a-ungetc.o)
 .debug_frame   0x0000000000002c98      0x258 /usr/bin/../lib/gcc/aarch64-elf/7.3.1/../../../../aarch64-elf/lib/libc.a(lib_a-vfiprintf.o)
 .debug_frame   0x0000000000002ef0      0x100 /usr/bin/../lib/gcc/aarch64-elf/7.3.1/../../../../aarch64-elf/lib/libc.a(lib_a-wcsnrtombs.o)
 .debug_frame   0x0000000000002ff0       0xa0 /usr/bin/../lib/gcc/aarch64-elf/7.3.1/../../../../aarch64-elf/lib/libc.a(lib_a-wctomb_r.o)
 .debug_frame   0x0000000000003090       0x48 /usr/bin/../lib/gcc/aarch64-elf/7.3.1/../../../../aarch64-elf/lib/libc.a(lib_a-callocr.o)
 .debug_frame   0x00000000000030d8       0x50 /usr/bin/../lib/gcc/aarch64-elf/7.3.1/../../../../aarch64-elf/lib/libc.a(lib_a-closer.o)
 .debug_frame   0x0000000000003128       0x28 /usr/bin/../lib/gcc/aarch64-elf/7.3.1/../../../../aarch64-elf/lib/libc.a(lib_a-ctype_.o)
 .debug_frame   0x0000000000003150       0x78 /usr/bin/../lib/gcc/aarch64-elf/7.3.1/../../../../aarch64-elf/lib/libc.a(lib_a-fclose.o)
 .debug_frame   0x00000000000031c8       0xd8 /usr/bin/../lib/gcc/aarch64-elf/7.3.1/../../../../aarch64-elf/lib/libc.a(lib_a-fputwc.o)
 .debug_frame   0x00000000000032a0       0x50 /usr/bin/../lib/gcc/aarch64-elf/7.3.1/../../../../aarch64-elf/lib/libc.a(lib_a-fstatr.o)
 .debug_frame   0x00000000000032f0       0x88 /usr/bin/../lib/gcc/aarch64-elf/7.3.1/../../../../aarch64-elf/lib/libc.a(lib_a-gdtoa-gethex.o)
 .debug_frame   0x0000000000003378       0x40 /usr/bin/../lib/gcc/aarch64-elf/7.3.1/../../../../aarch64-elf/lib/libc.a(lib_a-gdtoa-hexnan.o)
 .debug_frame   0x00000000000033b8       0xb8 /usr/bin/../lib/gcc/aarch64-elf/7.3.1/../../../../aarch64-elf/lib/libc.a(lib_a-getenv_r.o)
 .debug_frame   0x0000000000003470       0x50 /usr/bin/../lib/gcc/aarch64-elf/7.3.1/../../../../aarch64-elf/lib/libc.a(lib_a-isattyr.o)
 .debug_frame   0x00000000000034c0       0x50 /usr/bin/../lib/gcc/aarch64-elf/7.3.1/../../../../aarch64-elf/lib/libc.a(lib_a-lseekr.o)
 .debug_frame   0x0000000000003510       0x50 /usr/bin/../lib/gcc/aarch64-elf/7.3.1/../../../../aarch64-elf/lib/libc.a(lib_a-readr.o)
 .debug_frame   0x0000000000003560      0x2e0 /usr/bin/../lib/gcc/aarch64-elf/7.3.1/../../../../aarch64-elf/lib/libc.a(lib_a-strtodg.o)
 .debug_frame   0x0000000000003840       0x70 /usr/bin/../lib/gcc/aarch64-elf/7.3.1/../../../../aarch64-elf/lib/libc.a(lib_a-wbuf.o)
 .debug_frame   0x00000000000038b0       0x40 /usr/bin/../lib/gcc/aarch64-elf/7.3.1/../../../../aarch64-elf/lib/libc.a(lib_a-envlock.o)
 .debug_frame   0x00000000000038f0       0x28 /usr/bin/../lib/gcc/aarch64-elf/7.3.1/../../../../aarch64-elf/lib/libc.a(lib_a-errno.o)
 .debug_frame   0x0000000000003918      0x720 /usr/bin/../lib/gcc/aarch64-elf/7.3.1/../../../../aarch64-elf/lib/librdimon.a(rdimon-syscalls.o)
 .debug_frame   0x0000000000004038       0x40 /usr/bin/../lib/gcc/aarch64-elf/7.3.1/../../../../aarch64-elf/lib/librdimon.a(rdimon-_exit.o)
 .debug_frame   0x0000000000004078       0x38 /usr/bin/../lib/gcc/aarch64-elf/7.3.1/libgcc.a(eqtf2.o)
 .debug_frame   0x00000000000040b0       0x38 /usr/bin/../lib/gcc/aarch64-elf/7.3.1/libgcc.a(getf2.o)
 .debug_frame   0x00000000000040e8       0x38 /usr/bin/../lib/gcc/aarch64-elf/7.3.1/libgcc.a(letf2.o)
 .debug_frame   0x0000000000004120       0x58 /usr/bin/../lib/gcc/aarch64-elf/7.3.1/libgcc.a(multf3.o)
 .debug_frame   0x0000000000004178       0x40 /usr/bin/../lib/gcc/aarch64-elf/7.3.1/libgcc.a(subtf3.o)
 .debug_frame   0x00000000000041b8       0x40 /usr/bin/../lib/gcc/aarch64-elf/7.3.1/libgcc.a(fixtfsi.o)
 .debug_frame   0x00000000000041f8       0x28 /usr/bin/../lib/gcc/aarch64-elf/7.3.1/libgcc.a(floatsitf.o)
 .debug_frame   0x0000000000004220       0x38 /usr/bin/../lib/gcc/aarch64-elf/7.3.1/libgcc.a(extenddftf2.o)
 .debug_frame   0x0000000000004258       0x40 /usr/bin/../lib/gcc/aarch64-elf/7.3.1/libgcc.a(trunctfdf2.o)
 .debug_frame   0x0000000000004298       0x28 /usr/bin/../lib/gcc/aarch64-elf/7.3.1/libgcc.a(sfp-exceptions.o)

.debug_str      0x0000000000000000     0x76e2
 *(.debug_str)
 .debug_str     0x0000000000000000      0x638 /usr/bin/../lib/gcc/aarch64-elf/7.3.1/../../../../aarch64-elf/lib/libc.a(lib_a-atexit.o)
                                        0x70d (size before relaxing)
 .debug_str     0x0000000000000638       0xf5 /usr/bin/../lib/gcc/aarch64-elf/7.3.1/../../../../aarch64-elf/lib/libc.a(lib_a-exit.o)
                                        0x70e (size before relaxing)
 .debug_str     0x000000000000072d      0x1de /usr/bin/../lib/gcc/aarch64-elf/7.3.1/../../../../aarch64-elf/lib/libc.a(lib_a-fini.o)
                                        0x305 (size before relaxing)
 .debug_str     0x000000000000090b      0x1b2 /usr/bin/../lib/gcc/aarch64-elf/7.3.1/../../../../aarch64-elf/lib/libc.a(lib_a-impure.o)
                                        0x6c2 (size before relaxing)
 .debug_str     0x0000000000000abd      0x124 /usr/bin/../lib/gcc/aarch64-elf/7.3.1/../../../../aarch64-elf/lib/libc.a(lib_a-init.o)
                                        0x32f (size before relaxing)
 .debug_str     0x0000000000000be1      0x2fd /usr/bin/../lib/gcc/aarch64-elf/7.3.1/../../../../aarch64-elf/lib/libc.a(lib_a-printf.o)
                                        0x85d (size before relaxing)
 .debug_str     0x0000000000000ede      0x134 /usr/bin/../lib/gcc/aarch64-elf/7.3.1/../../../../aarch64-elf/lib/libc.a(lib_a-puts.o)
                                        0x877 (size before relaxing)
 .debug_str     0x0000000000001012       0xd4 /usr/bin/../lib/gcc/aarch64-elf/7.3.1/../../../../aarch64-elf/lib/libc.a(lib_a-scanf.o)
                                        0x85f (size before relaxing)
 .debug_str     0x00000000000010e6      0x1b7 /usr/bin/../lib/gcc/aarch64-elf/7.3.1/../../../../aarch64-elf/lib/libc.a(lib_a-syswrite.o)
                                        0x701 (size before relaxing)
 .debug_str     0x000000000000129d      0x7c7 /usr/bin/../lib/gcc/aarch64-elf/7.3.1/../../../../aarch64-elf/lib/libc.a(lib_a-vfprintf.o)
                                       0x10ed (size before relaxing)
 .debug_str     0x0000000000001a64      0x252 /usr/bin/../lib/gcc/aarch64-elf/7.3.1/../../../../aarch64-elf/lib/libc.a(lib_a-vfscanf.o)
                                        0xe9d (size before relaxing)
 .debug_str     0x0000000000001cb6       0xd2 /usr/bin/../lib/gcc/aarch64-elf/7.3.1/../../../../aarch64-elf/lib/libc.a(lib_a-wcrtomb.o)
                                        0xa5f (size before relaxing)
 .debug_str     0x0000000000001d88       0xdd /usr/bin/../lib/gcc/aarch64-elf/7.3.1/../../../../aarch64-elf/lib/libc.a(lib_a-wcsrtombs.o)
                                        0x6f9 (size before relaxing)
 .debug_str     0x0000000000001e65       0xca /usr/bin/../lib/gcc/aarch64-elf/7.3.1/../../../../aarch64-elf/lib/libc.a(lib_a-writer.o)
                                        0x702 (size before relaxing)
 .debug_str     0x0000000000001f2f       0xce /usr/bin/../lib/gcc/aarch64-elf/7.3.1/../../../../aarch64-elf/lib/libc.a(lib_a-wsetup.o)
                                        0x846 (size before relaxing)
 .debug_str     0x0000000000001ffd       0xd2 /usr/bin/../lib/gcc/aarch64-elf/7.3.1/../../../../aarch64-elf/lib/libc.a(lib_a-__atexit.o)
                                        0x727 (size before relaxing)
 .debug_str     0x00000000000020cf       0xd7 /usr/bin/../lib/gcc/aarch64-elf/7.3.1/../../../../aarch64-elf/lib/libc.a(lib_a-__call_atexit.o)
                                        0x705 (size before relaxing)
 .debug_str     0x00000000000021a6       0xf1 /usr/bin/../lib/gcc/aarch64-elf/7.3.1/../../../../aarch64-elf/lib/libc.a(lib_a-fflush.o)
                                        0x874 (size before relaxing)
 .debug_str     0x0000000000002297      0x1c0 /usr/bin/../lib/gcc/aarch64-elf/7.3.1/../../../../aarch64-elf/lib/libc.a(lib_a-findfp.o)
                                        0x950 (size before relaxing)
 .debug_str     0x0000000000002457       0xef /usr/bin/../lib/gcc/aarch64-elf/7.3.1/../../../../aarch64-elf/lib/libc.a(lib_a-fread.o)
                                        0x877 (size before relaxing)
 .debug_str     0x0000000000002546      0x22f /usr/bin/../lib/gcc/aarch64-elf/7.3.1/../../../../aarch64-elf/lib/libc.a(lib_a-freer.o)
                                        0x8a3 (size before relaxing)
 .debug_str     0x0000000000002775       0xf3 /usr/bin/../lib/gcc/aarch64-elf/7.3.1/../../../../aarch64-elf/lib/libc.a(lib_a-fvwrite.o)
                                        0x8c5 (size before relaxing)
 .debug_str     0x0000000000002868       0xcf /usr/bin/../lib/gcc/aarch64-elf/7.3.1/../../../../aarch64-elf/lib/libc.a(lib_a-fwalk.o)
                                        0x838 (size before relaxing)
 .debug_str     0x0000000000002937      0x1a8 /usr/bin/../lib/gcc/aarch64-elf/7.3.1/../../../../aarch64-elf/lib/libc.a(lib_a-iswspace.o)
                                        0x9ec (size before relaxing)
 .debug_str     0x0000000000002adf      0x100 /usr/bin/../lib/gcc/aarch64-elf/7.3.1/../../../../aarch64-elf/lib/libc.a(lib_a-jp2uc.o)
                                        0xa5c (size before relaxing)
 .debug_str     0x0000000000002bdf      0x381 /usr/bin/../lib/gcc/aarch64-elf/7.3.1/../../../../aarch64-elf/lib/libc.a(lib_a-ldtoa.o)
                                        0xd70 (size before relaxing)
 .debug_str     0x0000000000002f60      0x312 /usr/bin/../lib/gcc/aarch64-elf/7.3.1/../../../../aarch64-elf/lib/libc.a(lib_a-locale.o)
                                        0xc03 (size before relaxing)
 .debug_str     0x0000000000003272       0xef /usr/bin/../lib/gcc/aarch64-elf/7.3.1/../../../../aarch64-elf/lib/libc.a(lib_a-localeconv.o)
                                        0xa5f (size before relaxing)
 .debug_str     0x0000000000003361      0x1f3 /usr/bin/../lib/gcc/aarch64-elf/7.3.1/../../../../aarch64-elf/lib/libc.a(lib_a-makebuf.o)
                                        0x9b2 (size before relaxing)
 .debug_str     0x0000000000003554       0xb0 /usr/bin/../lib/gcc/aarch64-elf/7.3.1/../../../../aarch64-elf/lib/libc.a(lib_a-mallocr.o)
                                        0x92a (size before relaxing)
 .debug_str     0x0000000000003604       0xcb /usr/bin/../lib/gcc/aarch64-elf/7.3.1/../../../../aarch64-elf/lib/libc.a(lib_a-mbrtowc.o)
                                        0xa5f (size before relaxing)
 .debug_str     0x00000000000036cf      0x1f2 /usr/bin/../lib/gcc/aarch64-elf/7.3.1/../../../../aarch64-elf/lib/libc.a(lib_a-mbtowc_r.o)
                                        0xb9b (size before relaxing)
 .debug_str     0x00000000000038c1       0xd6 /usr/bin/../lib/gcc/aarch64-elf/7.3.1/../../../../aarch64-elf/lib/libc.a(lib_a-mlock.o)
                                        0x6ea (size before relaxing)
 .debug_str     0x0000000000003997      0x175 /usr/bin/../lib/gcc/aarch64-elf/7.3.1/../../../../aarch64-elf/lib/libc.a(lib_a-mprec.o)
                                        0xb71 (size before relaxing)
 .debug_str     0x0000000000003b0c       0x4e /usr/bin/../lib/gcc/aarch64-elf/7.3.1/../../../../aarch64-elf/lib/libc.a(lib_a-reallocr.o)
                                        0x8e1 (size before relaxing)
 .debug_str     0x0000000000003b5a       0xec /usr/bin/../lib/gcc/aarch64-elf/7.3.1/../../../../aarch64-elf/lib/libc.a(lib_a-reent.o)
                                        0x6fe (size before relaxing)
 .debug_str     0x0000000000003c46       0xd3 /usr/bin/../lib/gcc/aarch64-elf/7.3.1/../../../../aarch64-elf/lib/libc.a(lib_a-refill.o)
                                        0x87b (size before relaxing)
 .debug_str     0x0000000000003d19      0x1e6 /usr/bin/../lib/gcc/aarch64-elf/7.3.1/../../../../aarch64-elf/lib/libc.a(lib_a-s_frexp.o)
                                        0x775 (size before relaxing)
 .debug_str     0x0000000000003eff       0xd5 /usr/bin/../lib/gcc/aarch64-elf/7.3.1/../../../../aarch64-elf/lib/libc.a(lib_a-sbrkr.o)
                                        0x705 (size before relaxing)
 .debug_str     0x0000000000003fd4       0xcf /usr/bin/../lib/gcc/aarch64-elf/7.3.1/../../../../aarch64-elf/lib/libc.a(lib_a-sccl.o)
                                        0x806 (size before relaxing)
 .debug_str     0x00000000000040a3      0x1a8 /usr/bin/../lib/gcc/aarch64-elf/7.3.1/../../../../aarch64-elf/lib/libc.a(lib_a-sf_nan.o)
                                        0x72c (size before relaxing)
 .debug_str     0x000000000000424b       0xda /usr/bin/../lib/gcc/aarch64-elf/7.3.1/../../../../aarch64-elf/lib/libc.a(lib_a-sprintf.o)
                                        0x866 (size before relaxing)
 .debug_str     0x0000000000004325      0x10e /usr/bin/../lib/gcc/aarch64-elf/7.3.1/../../../../aarch64-elf/lib/libc.a(lib_a-stdio.o)
                                        0x88c (size before relaxing)
 .debug_str     0x0000000000004433      0x1c1 /usr/bin/../lib/gcc/aarch64-elf/7.3.1/../../../../aarch64-elf/lib/libc.a(lib_a-stpncpy.o)
                                        0x6e6 (size before relaxing)
 .debug_str     0x00000000000045f4       0xc6 /usr/bin/../lib/gcc/aarch64-elf/7.3.1/../../../../aarch64-elf/lib/libc.a(lib_a-strcasecmp.o)
                                        0x6e2 (size before relaxing)
 .debug_str     0x00000000000046ba       0xcd /usr/bin/../lib/gcc/aarch64-elf/7.3.1/../../../../aarch64-elf/lib/libc.a(lib_a-strcat.o)
                                        0x6d1 (size before relaxing)
 .debug_str     0x0000000000004787       0xc3 /usr/bin/../lib/gcc/aarch64-elf/7.3.1/../../../../aarch64-elf/lib/libc.a(lib_a-strlcpy.o)
                                        0x6c8 (size before relaxing)
 .debug_str     0x000000000000484a       0xc7 /usr/bin/../lib/gcc/aarch64-elf/7.3.1/../../../../aarch64-elf/lib/libc.a(lib_a-strncasecmp.o)
                                        0x6eb (size before relaxing)
 .debug_str     0x0000000000004911       0xcd /usr/bin/../lib/gcc/aarch64-elf/7.3.1/../../../../aarch64-elf/lib/libc.a(lib_a-strncpy.o)
                                        0x6f0 (size before relaxing)
 .debug_str     0x00000000000049de      0x27a /usr/bin/../lib/gcc/aarch64-elf/7.3.1/../../../../aarch64-elf/lib/libc.a(lib_a-strtod.o)
                                        0xd63 (size before relaxing)
 .debug_str     0x0000000000004c58       0xe1 /usr/bin/../lib/gcc/aarch64-elf/7.3.1/../../../../aarch64-elf/lib/libc.a(lib_a-strtol.o)
                                        0xa92 (size before relaxing)
 .debug_str     0x0000000000004d39       0xe0 /usr/bin/../lib/gcc/aarch64-elf/7.3.1/../../../../aarch64-elf/lib/libc.a(lib_a-strtold.o)
                                        0xb16 (size before relaxing)
 .debug_str     0x0000000000004e19       0xd6 /usr/bin/../lib/gcc/aarch64-elf/7.3.1/../../../../aarch64-elf/lib/libc.a(lib_a-strtoll.o)
                                        0xa97 (size before relaxing)
 .debug_str     0x0000000000004eef      0x12d /usr/bin/../lib/gcc/aarch64-elf/7.3.1/../../../../aarch64-elf/lib/libc.a(lib_a-strtorx.o)
                                        0xc11 (size before relaxing)
 .debug_str     0x000000000000501c       0xe1 /usr/bin/../lib/gcc/aarch64-elf/7.3.1/../../../../aarch64-elf/lib/libc.a(lib_a-strtoul.o)
                                        0xa97 (size before relaxing)
 .debug_str     0x00000000000050fd       0xd9 /usr/bin/../lib/gcc/aarch64-elf/7.3.1/../../../../aarch64-elf/lib/libc.a(lib_a-strtoull.o)
                                        0xa9c (size before relaxing)
 .debug_str     0x00000000000051d6       0x1a /usr/bin/../lib/gcc/aarch64-elf/7.3.1/../../../../aarch64-elf/lib/libc.a(lib_a-svfiprintf.o)
                                        0xfff (size before relaxing)
 .debug_str     0x00000000000051f0     0x109c /usr/bin/../lib/gcc/aarch64-elf/7.3.1/../../../../aarch64-elf/lib/libc.a(lib_a-svfprintf.o)
 .debug_str     0x00000000000051f0       0xd2 /usr/bin/../lib/gcc/aarch64-elf/7.3.1/../../../../aarch64-elf/lib/libc.a(lib_a-ungetc.o)
                                        0x85b (size before relaxing)
 .debug_str     0x00000000000052c2       0x21 /usr/bin/../lib/gcc/aarch64-elf/7.3.1/../../../../aarch64-elf/lib/libc.a(lib_a-vfiprintf.o)
                                       0x103f (size before relaxing)
 .debug_str     0x00000000000052e3       0xe9 /usr/bin/../lib/gcc/aarch64-elf/7.3.1/../../../../aarch64-elf/lib/libc.a(lib_a-wcsnrtombs.o)
                                        0xa7f (size before relaxing)
 .debug_str     0x00000000000053cc      0x128 /usr/bin/../lib/gcc/aarch64-elf/7.3.1/../../../../aarch64-elf/lib/libc.a(lib_a-wctomb_r.o)
                                        0xab0 (size before relaxing)
 .debug_str     0x00000000000054f4        0xf /usr/bin/../lib/gcc/aarch64-elf/7.3.1/../../../../aarch64-elf/lib/libc.a(lib_a-callocr.o)
                                        0x84e (size before relaxing)
 .debug_str     0x0000000000005503       0xc1 /usr/bin/../lib/gcc/aarch64-elf/7.3.1/../../../../aarch64-elf/lib/libc.a(lib_a-closer.o)
                                        0x6f2 (size before relaxing)
 .debug_str     0x00000000000055c4       0xc1 /usr/bin/../lib/gcc/aarch64-elf/7.3.1/../../../../aarch64-elf/lib/libc.a(lib_a-ctype_.o)
                                        0x9ee (size before relaxing)
 .debug_str     0x0000000000005685       0xd2 /usr/bin/../lib/gcc/aarch64-elf/7.3.1/../../../../aarch64-elf/lib/libc.a(lib_a-fclose.o)
                                        0x85d (size before relaxing)
 .debug_str     0x0000000000005757       0xde /usr/bin/../lib/gcc/aarch64-elf/7.3.1/../../../../aarch64-elf/lib/libc.a(lib_a-fputwc.o)
                                        0x88c (size before relaxing)
 .debug_str     0x0000000000005835       0xce /usr/bin/../lib/gcc/aarch64-elf/7.3.1/../../../../aarch64-elf/lib/libc.a(lib_a-fstatr.o)
                                        0x859 (size before relaxing)
 .debug_str     0x0000000000005903      0x114 /usr/bin/../lib/gcc/aarch64-elf/7.3.1/../../../../aarch64-elf/lib/libc.a(lib_a-gdtoa-gethex.o)
                                        0xc9a (size before relaxing)
 .debug_str     0x0000000000005a17       0xc8 /usr/bin/../lib/gcc/aarch64-elf/7.3.1/../../../../aarch64-elf/lib/libc.a(lib_a-gdtoa-hexnan.o)
                                        0xba5 (size before relaxing)
 .debug_str     0x0000000000005adf       0xf1 /usr/bin/../lib/gcc/aarch64-elf/7.3.1/../../../../aarch64-elf/lib/libc.a(lib_a-getenv_r.o)
                                        0x721 (size before relaxing)
 .debug_str     0x0000000000005bd0       0xca /usr/bin/../lib/gcc/aarch64-elf/7.3.1/../../../../aarch64-elf/lib/libc.a(lib_a-isattyr.o)
                                        0x6fc (size before relaxing)
 .debug_str     0x0000000000005c9a       0xc8 /usr/bin/../lib/gcc/aarch64-elf/7.3.1/../../../../aarch64-elf/lib/libc.a(lib_a-lseekr.o)
                                        0x700 (size before relaxing)
 .debug_str     0x0000000000005d62       0xc0 /usr/bin/../lib/gcc/aarch64-elf/7.3.1/../../../../aarch64-elf/lib/libc.a(lib_a-readr.o)
                                        0x700 (size before relaxing)
 .debug_str     0x0000000000005e22      0x15c /usr/bin/../lib/gcc/aarch64-elf/7.3.1/../../../../aarch64-elf/lib/libc.a(lib_a-strtodg.o)
                                        0xdca (size before relaxing)
 .debug_str     0x0000000000005f7e       0xc7 /usr/bin/../lib/gcc/aarch64-elf/7.3.1/../../../../aarch64-elf/lib/libc.a(lib_a-wbuf.o)
                                        0x84b (size before relaxing)
 .debug_str     0x0000000000006045       0xcf /usr/bin/../lib/gcc/aarch64-elf/7.3.1/../../../../aarch64-elf/lib/libc.a(lib_a-environ.o)
                                        0x270 (size before relaxing)
 .debug_str     0x0000000000006114       0xd5 /usr/bin/../lib/gcc/aarch64-elf/7.3.1/../../../../aarch64-elf/lib/libc.a(lib_a-envlock.o)
                                        0x6e3 (size before relaxing)
 .debug_str     0x00000000000061e9      0x1a5 /usr/bin/../lib/gcc/aarch64-elf/7.3.1/../../../../aarch64-elf/lib/libc.a(lib_a-errno.o)
                                        0x6d4 (size before relaxing)
 .debug_str     0x000000000000638e      0x4fa /usr/bin/../lib/gcc/aarch64-elf/7.3.1/../../../../aarch64-elf/lib/librdimon.a(rdimon-syscalls.o)
                                        0xb9b (size before relaxing)
 .debug_str     0x0000000000006888       0xc6 /usr/bin/../lib/gcc/aarch64-elf/7.3.1/../../../../aarch64-elf/lib/librdimon.a(rdimon-_exit.o)
                                        0x2aa (size before relaxing)
 .debug_str     0x000000000000694e      0x321 /usr/bin/../lib/gcc/aarch64-elf/7.3.1/libgcc.a(eqtf2.o)
                                        0x39e (size before relaxing)
 .debug_str     0x0000000000006c6f       0xd8 /usr/bin/../lib/gcc/aarch64-elf/7.3.1/libgcc.a(getf2.o)
                                        0x3c2 (size before relaxing)
 .debug_str     0x0000000000006d47       0xb4 /usr/bin/../lib/gcc/aarch64-elf/7.3.1/libgcc.a(letf2.o)
                                        0x3c2 (size before relaxing)
 .debug_str     0x0000000000006dfb      0x2db /usr/bin/../lib/gcc/aarch64-elf/7.3.1/libgcc.a(multf3.o)
                                        0x5a6 (size before relaxing)
 .debug_str     0x00000000000070d6      0x192 /usr/bin/../lib/gcc/aarch64-elf/7.3.1/libgcc.a(subtf3.o)
                                        0x484 (size before relaxing)
 .debug_str     0x0000000000007268       0xcb /usr/bin/../lib/gcc/aarch64-elf/7.3.1/libgcc.a(fixtfsi.o)
                                        0x39b (size before relaxing)
 .debug_str     0x0000000000007333       0xe9 /usr/bin/../lib/gcc/aarch64-elf/7.3.1/libgcc.a(floatsitf.o)
                                        0x418 (size before relaxing)
 .debug_str     0x000000000000741c       0xfa /usr/bin/../lib/gcc/aarch64-elf/7.3.1/libgcc.a(extenddftf2.o)
                                        0x3c0 (size before relaxing)
 .debug_str     0x0000000000007516       0xe6 /usr/bin/../lib/gcc/aarch64-elf/7.3.1/libgcc.a(trunctfdf2.o)
                                        0x41e (size before relaxing)
 .debug_str     0x00000000000075fc       0xe6 /usr/bin/../lib/gcc/aarch64-elf/7.3.1/libgcc.a(sfp-exceptions.o)
                                        0x2e1 (size before relaxing)

.debug_loc      0x0000000000000000    0x7fdd0
 *(.debug_loc)
 .debug_loc     0x0000000000000000       0x4c /usr/bin/../lib/gcc/aarch64-elf/7.3.1/../../../../aarch64-elf/lib/libc.a(lib_a-atexit.o)
 .debug_loc     0x000000000000004c       0x36 /usr/bin/../lib/gcc/aarch64-elf/7.3.1/../../../../aarch64-elf/lib/libc.a(lib_a-exit.o)
 .debug_loc     0x0000000000000082       0x6e /usr/bin/../lib/gcc/aarch64-elf/7.3.1/../../../../aarch64-elf/lib/libc.a(lib_a-fini.o)
 .debug_loc     0x00000000000000f0       0xe4 /usr/bin/../lib/gcc/aarch64-elf/7.3.1/../../../../aarch64-elf/lib/libc.a(lib_a-init.o)
 .debug_loc     0x00000000000001d4       0xf4 /usr/bin/../lib/gcc/aarch64-elf/7.3.1/../../../../aarch64-elf/lib/libc.a(lib_a-printf.o)
 .debug_loc     0x00000000000002c8      0x204 /usr/bin/../lib/gcc/aarch64-elf/7.3.1/../../../../aarch64-elf/lib/libc.a(lib_a-puts.o)
 .debug_loc     0x00000000000004cc       0xf4 /usr/bin/../lib/gcc/aarch64-elf/7.3.1/../../../../aarch64-elf/lib/libc.a(lib_a-scanf.o)
 .debug_loc     0x00000000000005c0       0xe4 /usr/bin/../lib/gcc/aarch64-elf/7.3.1/../../../../aarch64-elf/lib/libc.a(lib_a-syswrite.o)
 .debug_loc     0x00000000000006a4    0x126e5 /usr/bin/../lib/gcc/aarch64-elf/7.3.1/../../../../aarch64-elf/lib/libc.a(lib_a-vfprintf.o)
 .debug_loc     0x0000000000012d89     0xb53d /usr/bin/../lib/gcc/aarch64-elf/7.3.1/../../../../aarch64-elf/lib/libc.a(lib_a-vfscanf.o)
 .debug_loc     0x000000000001e2c6      0x406 /usr/bin/../lib/gcc/aarch64-elf/7.3.1/../../../../aarch64-elf/lib/libc.a(lib_a-wcrtomb.o)
 .debug_loc     0x000000000001e6cc      0x273 /usr/bin/../lib/gcc/aarch64-elf/7.3.1/../../../../aarch64-elf/lib/libc.a(lib_a-wcsrtombs.o)
 .debug_loc     0x000000000001e93f      0x146 /usr/bin/../lib/gcc/aarch64-elf/7.3.1/../../../../aarch64-elf/lib/libc.a(lib_a-writer.o)
 .debug_loc     0x000000000001ea85       0xf4 /usr/bin/../lib/gcc/aarch64-elf/7.3.1/../../../../aarch64-elf/lib/libc.a(lib_a-wsetup.o)
 .debug_loc     0x000000000001eb79      0x283 /usr/bin/../lib/gcc/aarch64-elf/7.3.1/../../../../aarch64-elf/lib/libc.a(lib_a-__atexit.o)
 .debug_loc     0x000000000001edfc      0x358 /usr/bin/../lib/gcc/aarch64-elf/7.3.1/../../../../aarch64-elf/lib/libc.a(lib_a-__call_atexit.o)
 .debug_loc     0x000000000001f154      0x682 /usr/bin/../lib/gcc/aarch64-elf/7.3.1/../../../../aarch64-elf/lib/libc.a(lib_a-fflush.o)
 .debug_loc     0x000000000001f7d6      0x504 /usr/bin/../lib/gcc/aarch64-elf/7.3.1/../../../../aarch64-elf/lib/libc.a(lib_a-findfp.o)
 .debug_loc     0x000000000001fcda      0x952 /usr/bin/../lib/gcc/aarch64-elf/7.3.1/../../../../aarch64-elf/lib/libc.a(lib_a-fread.o)
 .debug_loc     0x000000000002062c      0x9ff /usr/bin/../lib/gcc/aarch64-elf/7.3.1/../../../../aarch64-elf/lib/libc.a(lib_a-freer.o)
 .debug_loc     0x000000000002102b      0xaa2 /usr/bin/../lib/gcc/aarch64-elf/7.3.1/../../../../aarch64-elf/lib/libc.a(lib_a-fvwrite.o)
 .debug_loc     0x0000000000021acd      0x47b /usr/bin/../lib/gcc/aarch64-elf/7.3.1/../../../../aarch64-elf/lib/libc.a(lib_a-fwalk.o)
 .debug_loc     0x0000000000021f48       0x4c /usr/bin/../lib/gcc/aarch64-elf/7.3.1/../../../../aarch64-elf/lib/libc.a(lib_a-iswspace.o)
 .debug_loc     0x0000000000021f94      0x5ec /usr/bin/../lib/gcc/aarch64-elf/7.3.1/../../../../aarch64-elf/lib/libc.a(lib_a-jp2uc.o)
 .debug_loc     0x0000000000022580     0x81e4 /usr/bin/../lib/gcc/aarch64-elf/7.3.1/../../../../aarch64-elf/lib/libc.a(lib_a-ldtoa.o)
 .debug_loc     0x000000000002a764     0x11c8 /usr/bin/../lib/gcc/aarch64-elf/7.3.1/../../../../aarch64-elf/lib/libc.a(lib_a-locale.o)
 .debug_loc     0x000000000002b92c       0xab /usr/bin/../lib/gcc/aarch64-elf/7.3.1/../../../../aarch64-elf/lib/libc.a(lib_a-localeconv.o)
 .debug_loc     0x000000000002b9d7      0x4a3 /usr/bin/../lib/gcc/aarch64-elf/7.3.1/../../../../aarch64-elf/lib/libc.a(lib_a-makebuf.o)
 .debug_loc     0x000000000002be7a     0x169b /usr/bin/../lib/gcc/aarch64-elf/7.3.1/../../../../aarch64-elf/lib/libc.a(lib_a-mallocr.o)
 .debug_loc     0x000000000002d515      0x4dd /usr/bin/../lib/gcc/aarch64-elf/7.3.1/../../../../aarch64-elf/lib/libc.a(lib_a-mbrtowc.o)
 .debug_loc     0x000000000002d9f2     0x142f /usr/bin/../lib/gcc/aarch64-elf/7.3.1/../../../../aarch64-elf/lib/libc.a(lib_a-mbtowc_r.o)
 .debug_loc     0x000000000002ee21     0x2fa9 /usr/bin/../lib/gcc/aarch64-elf/7.3.1/../../../../aarch64-elf/lib/libc.a(lib_a-mprec.o)
 .debug_loc     0x0000000000031dca     0x1738 /usr/bin/../lib/gcc/aarch64-elf/7.3.1/../../../../aarch64-elf/lib/libc.a(lib_a-reallocr.o)
 .debug_loc     0x0000000000033502      0x283 /usr/bin/../lib/gcc/aarch64-elf/7.3.1/../../../../aarch64-elf/lib/libc.a(lib_a-reent.o)
 .debug_loc     0x0000000000033785      0x35f /usr/bin/../lib/gcc/aarch64-elf/7.3.1/../../../../aarch64-elf/lib/libc.a(lib_a-refill.o)
 .debug_loc     0x0000000000033ae4      0x152 /usr/bin/../lib/gcc/aarch64-elf/7.3.1/../../../../aarch64-elf/lib/libc.a(lib_a-s_frexp.o)
 .debug_loc     0x0000000000033c36       0xae /usr/bin/../lib/gcc/aarch64-elf/7.3.1/../../../../aarch64-elf/lib/libc.a(lib_a-sbrkr.o)
 .debug_loc     0x0000000000033ce4      0x2bc /usr/bin/../lib/gcc/aarch64-elf/7.3.1/../../../../aarch64-elf/lib/libc.a(lib_a-sccl.o)
 .debug_loc     0x0000000000033fa0       0x39 /usr/bin/../lib/gcc/aarch64-elf/7.3.1/../../../../aarch64-elf/lib/libc.a(lib_a-sf_nan.o)
 .debug_loc     0x0000000000033fd9      0x16c /usr/bin/../lib/gcc/aarch64-elf/7.3.1/../../../../aarch64-elf/lib/libc.a(lib_a-sprintf.o)
 .debug_loc     0x0000000000034145      0x58a /usr/bin/../lib/gcc/aarch64-elf/7.3.1/../../../../aarch64-elf/lib/libc.a(lib_a-stdio.o)
 .debug_loc     0x00000000000346cf      0x2d4 /usr/bin/../lib/gcc/aarch64-elf/7.3.1/../../../../aarch64-elf/lib/libc.a(lib_a-stpncpy.o)
 .debug_loc     0x00000000000349a3      0x20d /usr/bin/../lib/gcc/aarch64-elf/7.3.1/../../../../aarch64-elf/lib/libc.a(lib_a-strcasecmp.o)
 .debug_loc     0x0000000000034bb0      0x118 /usr/bin/../lib/gcc/aarch64-elf/7.3.1/../../../../aarch64-elf/lib/libc.a(lib_a-strcat.o)
 .debug_loc     0x0000000000034cc8      0x1de /usr/bin/../lib/gcc/aarch64-elf/7.3.1/../../../../aarch64-elf/lib/libc.a(lib_a-strlcpy.o)
 .debug_loc     0x0000000000034ea6      0x2bf /usr/bin/../lib/gcc/aarch64-elf/7.3.1/../../../../aarch64-elf/lib/libc.a(lib_a-strncasecmp.o)
 .debug_loc     0x0000000000035165      0x300 /usr/bin/../lib/gcc/aarch64-elf/7.3.1/../../../../aarch64-elf/lib/libc.a(lib_a-strncpy.o)
 .debug_loc     0x0000000000035465     0x3fdc /usr/bin/../lib/gcc/aarch64-elf/7.3.1/../../../../aarch64-elf/lib/libc.a(lib_a-strtod.o)
 .debug_loc     0x0000000000039441      0x973 /usr/bin/../lib/gcc/aarch64-elf/7.3.1/../../../../aarch64-elf/lib/libc.a(lib_a-strtol.o)
 .debug_loc     0x0000000000039db4      0x227 /usr/bin/../lib/gcc/aarch64-elf/7.3.1/../../../../aarch64-elf/lib/libc.a(lib_a-strtold.o)
 .debug_loc     0x0000000000039fdb      0x973 /usr/bin/../lib/gcc/aarch64-elf/7.3.1/../../../../aarch64-elf/lib/libc.a(lib_a-strtoll.o)
 .debug_loc     0x000000000003a94e      0x3d2 /usr/bin/../lib/gcc/aarch64-elf/7.3.1/../../../../aarch64-elf/lib/libc.a(lib_a-strtorx.o)
 .debug_loc     0x000000000003ad20      0x88a /usr/bin/../lib/gcc/aarch64-elf/7.3.1/../../../../aarch64-elf/lib/libc.a(lib_a-strtoul.o)
 .debug_loc     0x000000000003b5aa      0x88a /usr/bin/../lib/gcc/aarch64-elf/7.3.1/../../../../aarch64-elf/lib/libc.a(lib_a-strtoull.o)
 .debug_loc     0x000000000003be34     0xee20 /usr/bin/../lib/gcc/aarch64-elf/7.3.1/../../../../aarch64-elf/lib/libc.a(lib_a-svfiprintf.o)
 .debug_loc     0x000000000004ac54    0x1189a /usr/bin/../lib/gcc/aarch64-elf/7.3.1/../../../../aarch64-elf/lib/libc.a(lib_a-svfprintf.o)
 .debug_loc     0x000000000005c4ee      0x600 /usr/bin/../lib/gcc/aarch64-elf/7.3.1/../../../../aarch64-elf/lib/libc.a(lib_a-ungetc.o)
 .debug_loc     0x000000000005caee     0xddfb /usr/bin/../lib/gcc/aarch64-elf/7.3.1/../../../../aarch64-elf/lib/libc.a(lib_a-vfiprintf.o)
 .debug_loc     0x000000000006a8e9      0xdc5 /usr/bin/../lib/gcc/aarch64-elf/7.3.1/../../../../aarch64-elf/lib/libc.a(lib_a-wcsnrtombs.o)
 .debug_loc     0x000000000006b6ae      0xb0a /usr/bin/../lib/gcc/aarch64-elf/7.3.1/../../../../aarch64-elf/lib/libc.a(lib_a-wctomb_r.o)
 .debug_loc     0x000000000006c1b8      0x323 /usr/bin/../lib/gcc/aarch64-elf/7.3.1/../../../../aarch64-elf/lib/libc.a(lib_a-callocr.o)
 .debug_loc     0x000000000006c4db       0xae /usr/bin/../lib/gcc/aarch64-elf/7.3.1/../../../../aarch64-elf/lib/libc.a(lib_a-closer.o)
 .debug_loc     0x000000000006c589       0x39 /usr/bin/../lib/gcc/aarch64-elf/7.3.1/../../../../aarch64-elf/lib/libc.a(lib_a-ctype_.o)
 .debug_loc     0x000000000006c5c2      0x2a9 /usr/bin/../lib/gcc/aarch64-elf/7.3.1/../../../../aarch64-elf/lib/libc.a(lib_a-fclose.o)
 .debug_loc     0x000000000006c86b      0x642 /usr/bin/../lib/gcc/aarch64-elf/7.3.1/../../../../aarch64-elf/lib/libc.a(lib_a-fputwc.o)
 .debug_loc     0x000000000006cead       0xfa /usr/bin/../lib/gcc/aarch64-elf/7.3.1/../../../../aarch64-elf/lib/libc.a(lib_a-fstatr.o)
 .debug_loc     0x000000000006cfa7     0x1bdc /usr/bin/../lib/gcc/aarch64-elf/7.3.1/../../../../aarch64-elf/lib/libc.a(lib_a-gdtoa-gethex.o)
 .debug_loc     0x000000000006eb83      0x92d /usr/bin/../lib/gcc/aarch64-elf/7.3.1/../../../../aarch64-elf/lib/libc.a(lib_a-gdtoa-hexnan.o)
 .debug_loc     0x000000000006f4b0      0x30f /usr/bin/../lib/gcc/aarch64-elf/7.3.1/../../../../aarch64-elf/lib/libc.a(lib_a-getenv_r.o)
 .debug_loc     0x000000000006f7bf       0xae /usr/bin/../lib/gcc/aarch64-elf/7.3.1/../../../../aarch64-elf/lib/libc.a(lib_a-isattyr.o)
 .debug_loc     0x000000000006f86d      0x146 /usr/bin/../lib/gcc/aarch64-elf/7.3.1/../../../../aarch64-elf/lib/libc.a(lib_a-lseekr.o)
 .debug_loc     0x000000000006f9b3      0x146 /usr/bin/../lib/gcc/aarch64-elf/7.3.1/../../../../aarch64-elf/lib/libc.a(lib_a-readr.o)
 .debug_loc     0x000000000006faf9     0x69c5 /usr/bin/../lib/gcc/aarch64-elf/7.3.1/../../../../aarch64-elf/lib/libc.a(lib_a-strtodg.o)
 .debug_loc     0x00000000000764be      0x2a6 /usr/bin/../lib/gcc/aarch64-elf/7.3.1/../../../../aarch64-elf/lib/libc.a(lib_a-wbuf.o)
 .debug_loc     0x0000000000076764     0x26dc /usr/bin/../lib/gcc/aarch64-elf/7.3.1/../../../../aarch64-elf/lib/librdimon.a(rdimon-syscalls.o)
 .debug_loc     0x0000000000078e40       0x36 /usr/bin/../lib/gcc/aarch64-elf/7.3.1/../../../../aarch64-elf/lib/librdimon.a(rdimon-_exit.o)
 .debug_loc     0x0000000000078e76      0x31b /usr/bin/../lib/gcc/aarch64-elf/7.3.1/libgcc.a(eqtf2.o)
 .debug_loc     0x0000000000079191      0x450 /usr/bin/../lib/gcc/aarch64-elf/7.3.1/libgcc.a(getf2.o)
 .debug_loc     0x00000000000795e1      0x43c /usr/bin/../lib/gcc/aarch64-elf/7.3.1/libgcc.a(letf2.o)
 .debug_loc     0x0000000000079a1d     0x1d40 /usr/bin/../lib/gcc/aarch64-elf/7.3.1/libgcc.a(multf3.o)
 .debug_loc     0x000000000007b75d     0x30f9 /usr/bin/../lib/gcc/aarch64-elf/7.3.1/libgcc.a(subtf3.o)
 .debug_loc     0x000000000007e856      0x3e7 /usr/bin/../lib/gcc/aarch64-elf/7.3.1/libgcc.a(fixtfsi.o)
 .debug_loc     0x000000000007ec3d      0x186 /usr/bin/../lib/gcc/aarch64-elf/7.3.1/libgcc.a(floatsitf.o)
 .debug_loc     0x000000000007edc3      0x66e /usr/bin/../lib/gcc/aarch64-elf/7.3.1/libgcc.a(extenddftf2.o)
 .debug_loc     0x000000000007f431      0x966 /usr/bin/../lib/gcc/aarch64-elf/7.3.1/libgcc.a(trunctfdf2.o)
 .debug_loc     0x000000000007fd97       0x39 /usr/bin/../lib/gcc/aarch64-elf/7.3.1/libgcc.a(sfp-exceptions.o)

.debug_macinfo
 *(.debug_macinfo)

.debug_weaknames
 *(.debug_weaknames)

.debug_funcnames
 *(.debug_funcnames)

.debug_typenames
 *(.debug_typenames)

.debug_varnames
 *(.debug_varnames)

.debug_pubtypes
 *(.debug_pubtypes)

.debug_ranges   0x0000000000000000     0x6380
 *(.debug_ranges)
 .debug_ranges  0x0000000000000000       0x40 /usr/bin/../lib/gcc/aarch64-elf/7.3.1/../../../../aarch64-elf/lib/libc.a(lib_a-puts.o)
 .debug_ranges  0x0000000000000040      0x500 /usr/bin/../lib/gcc/aarch64-elf/7.3.1/../../../../aarch64-elf/lib/libc.a(lib_a-vfprintf.o)
 .debug_ranges  0x0000000000000540     0x13f0 /usr/bin/../lib/gcc/aarch64-elf/7.3.1/../../../../aarch64-elf/lib/libc.a(lib_a-vfscanf.o)
 .debug_ranges  0x0000000000001930       0x60 /usr/bin/../lib/gcc/aarch64-elf/7.3.1/../../../../aarch64-elf/lib/libc.a(lib_a-wcrtomb.o)
 .debug_ranges  0x0000000000001990       0x50 /usr/bin/../lib/gcc/aarch64-elf/7.3.1/../../../../aarch64-elf/lib/libc.a(lib_a-writer.o)
 .debug_ranges  0x00000000000019e0       0x50 /usr/bin/../lib/gcc/aarch64-elf/7.3.1/../../../../aarch64-elf/lib/libc.a(lib_a-wsetup.o)
 .debug_ranges  0x0000000000001a30       0x50 /usr/bin/../lib/gcc/aarch64-elf/7.3.1/../../../../aarch64-elf/lib/libc.a(lib_a-__call_atexit.o)
 .debug_ranges  0x0000000000001a80       0xa0 /usr/bin/../lib/gcc/aarch64-elf/7.3.1/../../../../aarch64-elf/lib/libc.a(lib_a-fflush.o)
 .debug_ranges  0x0000000000001b20      0x140 /usr/bin/../lib/gcc/aarch64-elf/7.3.1/../../../../aarch64-elf/lib/libc.a(lib_a-findfp.o)
 .debug_ranges  0x0000000000001c60       0x70 /usr/bin/../lib/gcc/aarch64-elf/7.3.1/../../../../aarch64-elf/lib/libc.a(lib_a-fread.o)
 .debug_ranges  0x0000000000001cd0       0x70 /usr/bin/../lib/gcc/aarch64-elf/7.3.1/../../../../aarch64-elf/lib/libc.a(lib_a-fvwrite.o)
 .debug_ranges  0x0000000000001d40      0x120 /usr/bin/../lib/gcc/aarch64-elf/7.3.1/../../../../aarch64-elf/lib/libc.a(lib_a-jp2uc.o)
 .debug_ranges  0x0000000000001e60      0xad0 /usr/bin/../lib/gcc/aarch64-elf/7.3.1/../../../../aarch64-elf/lib/libc.a(lib_a-ldtoa.o)
 .debug_ranges  0x0000000000002930       0xa0 /usr/bin/../lib/gcc/aarch64-elf/7.3.1/../../../../aarch64-elf/lib/libc.a(lib_a-locale.o)
 .debug_ranges  0x00000000000029d0       0x70 /usr/bin/../lib/gcc/aarch64-elf/7.3.1/../../../../aarch64-elf/lib/libc.a(lib_a-mallocr.o)
 .debug_ranges  0x0000000000002a40       0x60 /usr/bin/../lib/gcc/aarch64-elf/7.3.1/../../../../aarch64-elf/lib/libc.a(lib_a-mbrtowc.o)
 .debug_ranges  0x0000000000002aa0       0x80 /usr/bin/../lib/gcc/aarch64-elf/7.3.1/../../../../aarch64-elf/lib/libc.a(lib_a-mbtowc_r.o)
 .debug_ranges  0x0000000000002b20      0x110 /usr/bin/../lib/gcc/aarch64-elf/7.3.1/../../../../aarch64-elf/lib/libc.a(lib_a-mprec.o)
 .debug_ranges  0x0000000000002c30      0x230 /usr/bin/../lib/gcc/aarch64-elf/7.3.1/../../../../aarch64-elf/lib/libc.a(lib_a-reallocr.o)
 .debug_ranges  0x0000000000002e60       0x30 /usr/bin/../lib/gcc/aarch64-elf/7.3.1/../../../../aarch64-elf/lib/libc.a(lib_a-refill.o)
 .debug_ranges  0x0000000000002e90       0x60 /usr/bin/../lib/gcc/aarch64-elf/7.3.1/../../../../aarch64-elf/lib/libc.a(lib_a-s_frexp.o)
 .debug_ranges  0x0000000000002ef0       0x20 /usr/bin/../lib/gcc/aarch64-elf/7.3.1/../../../../aarch64-elf/lib/libc.a(lib_a-sccl.o)
 .debug_ranges  0x0000000000002f10       0xa0 /usr/bin/../lib/gcc/aarch64-elf/7.3.1/../../../../aarch64-elf/lib/libc.a(lib_a-strcasecmp.o)
 .debug_ranges  0x0000000000002fb0       0x90 /usr/bin/../lib/gcc/aarch64-elf/7.3.1/../../../../aarch64-elf/lib/libc.a(lib_a-strncasecmp.o)
 .debug_ranges  0x0000000000003040      0x1c0 /usr/bin/../lib/gcc/aarch64-elf/7.3.1/../../../../aarch64-elf/lib/libc.a(lib_a-strtod.o)
 .debug_ranges  0x0000000000003200       0x30 /usr/bin/../lib/gcc/aarch64-elf/7.3.1/../../../../aarch64-elf/lib/libc.a(lib_a-strtol.o)
 .debug_ranges  0x0000000000003230       0x70 /usr/bin/../lib/gcc/aarch64-elf/7.3.1/../../../../aarch64-elf/lib/libc.a(lib_a-strtold.o)
 .debug_ranges  0x00000000000032a0       0x30 /usr/bin/../lib/gcc/aarch64-elf/7.3.1/../../../../aarch64-elf/lib/libc.a(lib_a-strtoll.o)
 .debug_ranges  0x00000000000032d0       0x30 /usr/bin/../lib/gcc/aarch64-elf/7.3.1/../../../../aarch64-elf/lib/libc.a(lib_a-strtoul.o)
 .debug_ranges  0x0000000000003300       0x30 /usr/bin/../lib/gcc/aarch64-elf/7.3.1/../../../../aarch64-elf/lib/libc.a(lib_a-strtoull.o)
 .debug_ranges  0x0000000000003330      0x2e0 /usr/bin/../lib/gcc/aarch64-elf/7.3.1/../../../../aarch64-elf/lib/libc.a(lib_a-svfiprintf.o)
 .debug_ranges  0x0000000000003610      0x4e0 /usr/bin/../lib/gcc/aarch64-elf/7.3.1/../../../../aarch64-elf/lib/libc.a(lib_a-svfprintf.o)
 .debug_ranges  0x0000000000003af0       0x60 /usr/bin/../lib/gcc/aarch64-elf/7.3.1/../../../../aarch64-elf/lib/libc.a(lib_a-ungetc.o)
 .debug_ranges  0x0000000000003b50      0x550 /usr/bin/../lib/gcc/aarch64-elf/7.3.1/../../../../aarch64-elf/lib/libc.a(lib_a-vfiprintf.o)
 .debug_ranges  0x00000000000040a0      0x100 /usr/bin/../lib/gcc/aarch64-elf/7.3.1/../../../../aarch64-elf/lib/libc.a(lib_a-wcsnrtombs.o)
 .debug_ranges  0x00000000000041a0       0x30 /usr/bin/../lib/gcc/aarch64-elf/7.3.1/../../../../aarch64-elf/lib/libc.a(lib_a-callocr.o)
 .debug_ranges  0x00000000000041d0       0x40 /usr/bin/../lib/gcc/aarch64-elf/7.3.1/../../../../aarch64-elf/lib/libc.a(lib_a-closer.o)
 .debug_ranges  0x0000000000004210       0x70 /usr/bin/../lib/gcc/aarch64-elf/7.3.1/../../../../aarch64-elf/lib/libc.a(lib_a-fclose.o)
 .debug_ranges  0x0000000000004280       0x90 /usr/bin/../lib/gcc/aarch64-elf/7.3.1/../../../../aarch64-elf/lib/libc.a(lib_a-fputwc.o)
 .debug_ranges  0x0000000000004310       0x50 /usr/bin/../lib/gcc/aarch64-elf/7.3.1/../../../../aarch64-elf/lib/libc.a(lib_a-fstatr.o)
 .debug_ranges  0x0000000000004360       0x40 /usr/bin/../lib/gcc/aarch64-elf/7.3.1/../../../../aarch64-elf/lib/libc.a(lib_a-gdtoa-gethex.o)
 .debug_ranges  0x00000000000043a0       0x40 /usr/bin/../lib/gcc/aarch64-elf/7.3.1/../../../../aarch64-elf/lib/libc.a(lib_a-gdtoa-hexnan.o)
 .debug_ranges  0x00000000000043e0       0x40 /usr/bin/../lib/gcc/aarch64-elf/7.3.1/../../../../aarch64-elf/lib/libc.a(lib_a-isattyr.o)
 .debug_ranges  0x0000000000004420       0x50 /usr/bin/../lib/gcc/aarch64-elf/7.3.1/../../../../aarch64-elf/lib/libc.a(lib_a-lseekr.o)
 .debug_ranges  0x0000000000004470       0x50 /usr/bin/../lib/gcc/aarch64-elf/7.3.1/../../../../aarch64-elf/lib/libc.a(lib_a-readr.o)
 .debug_ranges  0x00000000000044c0      0x100 /usr/bin/../lib/gcc/aarch64-elf/7.3.1/../../../../aarch64-elf/lib/libc.a(lib_a-strtodg.o)
 .debug_ranges  0x00000000000045c0       0x30 /usr/bin/../lib/gcc/aarch64-elf/7.3.1/../../../../aarch64-elf/lib/libc.a(lib_a-wbuf.o)
 .debug_ranges  0x00000000000045f0      0x9f0 /usr/bin/../lib/gcc/aarch64-elf/7.3.1/../../../../aarch64-elf/lib/librdimon.a(rdimon-syscalls.o)
 .debug_ranges  0x0000000000004fe0       0x90 /usr/bin/../lib/gcc/aarch64-elf/7.3.1/../../../../aarch64-elf/lib/librdimon.a(rdimon-_exit.o)
 .debug_ranges  0x0000000000005070       0x90 /usr/bin/../lib/gcc/aarch64-elf/7.3.1/libgcc.a(eqtf2.o)
 .debug_ranges  0x0000000000005100       0xc0 /usr/bin/../lib/gcc/aarch64-elf/7.3.1/libgcc.a(getf2.o)
 .debug_ranges  0x00000000000051c0       0xb0 /usr/bin/../lib/gcc/aarch64-elf/7.3.1/libgcc.a(letf2.o)
 .debug_ranges  0x0000000000005270      0x520 /usr/bin/../lib/gcc/aarch64-elf/7.3.1/libgcc.a(multf3.o)
 .debug_ranges  0x0000000000005790      0x810 /usr/bin/../lib/gcc/aarch64-elf/7.3.1/libgcc.a(subtf3.o)
 .debug_ranges  0x0000000000005fa0       0x90 /usr/bin/../lib/gcc/aarch64-elf/7.3.1/libgcc.a(fixtfsi.o)
 .debug_ranges  0x0000000000006030      0x120 /usr/bin/../lib/gcc/aarch64-elf/7.3.1/libgcc.a(floatsitf.o)
 .debug_ranges  0x0000000000006150       0xd0 /usr/bin/../lib/gcc/aarch64-elf/7.3.1/libgcc.a(extenddftf2.o)
 .debug_ranges  0x0000000000006220      0x160 /usr/bin/../lib/gcc/aarch64-elf/7.3.1/libgcc.a(trunctfdf2.o)

.debug_macro
 *(.debug_macro)

.debug_addr
 *(.debug_addr)

.stack          0x0000000000080000        0x0
                0x0000000000080000                _stack = .
 *(.stack)

.ARM.attributes
 *(.ARM.attributes)
 *(.gnu.attributes)

.note.gnu.arm.ident
 *(.note.gnu.arm.ident)

/DISCARD/
 *(.note.GNU-stack)
 *(.gnu_debuglink)
 *(.gnu.lto_*)
OUTPUT(02_recursiveSum.afx elf64-littleaarch64)
